Component: ARM Compiler 5.06 update 3 (build 300) Tool: armlink [4d35c9]

==============================================================================

Section Cross References

    main.o(i.main) refers to drv_bsp.o(i.Drv_BspInit) for Drv_BspInit
    main.o(i.main) refers to ano_scheduler.o(i.Main_Task) for Main_Task
    main.o(i.main) refers to ano_fcdata.o(.bss) for flag
    ano_scheduler.o(i.INT_1ms_Task) refers to ano_led.o(i.LED_1ms_DRV) for LED_1ms_DRV
    ano_scheduler.o(i.INT_1ms_Task) refers to ano_scheduler.o(.data) for lt0_run_flag
    ano_scheduler.o(i.Loop_Task_0) refers to ano_flightdatacal.o(i.Fc_Sensor_Get) for Fc_Sensor_Get
    ano_scheduler.o(i.Loop_Task_0) refers to ano_sensor_basic.o(i.Sensor_Data_Prepare) for Sensor_Data_Prepare
    ano_scheduler.o(i.Loop_Task_0) refers to ano_flightdatacal.o(i.IMU_Update_Task) for IMU_Update_Task
    ano_scheduler.o(i.Loop_Task_0) refers to ano_flightdatacal.o(i.WCZ_Acc_Get_Task) for WCZ_Acc_Get_Task
    ano_scheduler.o(i.Loop_Task_0) refers to drv_gps.o(i.WCXY_Acc_Get_Task) for WCXY_Acc_Get_Task
    ano_scheduler.o(i.Loop_Task_0) refers to ano_flightctrl.o(i.Flight_State_Task) for Flight_State_Task
    ano_scheduler.o(i.Loop_Task_0) refers to ano_flightctrl.o(i.Swtich_State_Task) for Swtich_State_Task
    ano_scheduler.o(i.Loop_Task_0) refers to ano_of_decofusion.o(i.ANO_OF_Data_Prepare_Task) for ANO_OF_Data_Prepare_Task
    ano_scheduler.o(i.Loop_Task_0) refers to ano_dt.o(i.ANO_DT_Data_Exchange) for ANO_DT_Data_Exchange
    ano_scheduler.o(i.Loop_Task_0) refers to ano_rc.o(.bss) for CH_N
    ano_scheduler.o(i.Loop_Task_1) refers to ano_attctrl.o(i.Att_1level_Ctrl) for Att_1level_Ctrl
    ano_scheduler.o(i.Loop_Task_1) refers to ano_motorctrl.o(i.Motor_Ctrl_Task) for Motor_Ctrl_Task
    ano_scheduler.o(i.Loop_Task_2) refers to ano_imu.o(i.calculate_RPY) for calculate_RPY
    ano_scheduler.o(i.Loop_Task_2) refers to ano_attctrl.o(i.Att_2level_Ctrl) for Att_2level_Ctrl
    ano_scheduler.o(i.Loop_Task_2) refers to ano_rc.o(.bss) for CH_N
    ano_scheduler.o(i.Loop_Task_5) refers to ano_rc.o(i.RC_duty_task) for RC_duty_task
    ano_scheduler.o(i.Loop_Task_5) refers to ano_flightctrl.o(i.Flight_Mode_Set) for Flight_Mode_Set
    ano_scheduler.o(i.Loop_Task_5) refers to ano_flightdatacal.o(i.WCZ_Fus_Task) for WCZ_Fus_Task
    ano_scheduler.o(i.Loop_Task_5) refers to drv_gps.o(i.GPS_Data_Processing_Task) for GPS_Data_Processing_Task
    ano_scheduler.o(i.Loop_Task_5) refers to ano_altctrl.o(i.Alt_1level_Ctrl) for Alt_1level_Ctrl
    ano_scheduler.o(i.Loop_Task_5) refers to ano_altctrl.o(i.Alt_2level_Ctrl) for Alt_2level_Ctrl
    ano_scheduler.o(i.Loop_Task_5) refers to ano_of.o(i.AnoOF_DataAnl_Task) for AnoOF_DataAnl_Task
    ano_scheduler.o(i.Loop_Task_5) refers to ano_led.o(i.LED_Task2) for LED_Task2
    ano_scheduler.o(i.Loop_Task_8) refers to ano_flightctrl.o(i.one_key_take_off) for one_key_take_off
    ano_scheduler.o(i.Loop_Task_8) refers to ano_flightctrl.o(i.one_key_land) for one_key_land
    ano_scheduler.o(i.Loop_Task_8) refers to ano_flightdatacal.o(i.Mag_Update_Task) for Mag_Update_Task
    ano_scheduler.o(i.Loop_Task_8) refers to ano_flyctrl.o(i.FlyCtrl_Task) for FlyCtrl_Task
    ano_scheduler.o(i.Loop_Task_8) refers to ano_of_decofusion.o(i.ANO_OFDF_Task) for ANO_OFDF_Task
    ano_scheduler.o(i.Loop_Task_8) refers to ano_uwb.o(i.Ano_UWB_Data_Calcu_Task) for Ano_UWB_Data_Calcu_Task
    ano_scheduler.o(i.Loop_Task_8) refers to ano_locctrl.o(i.Loc_1level_Ctrl) for Loc_1level_Ctrl
    ano_scheduler.o(i.Loop_Task_8) refers to drv_openmv.o(i.OpenMV_Offline_Check) for OpenMV_Offline_Check
    ano_scheduler.o(i.Loop_Task_8) refers to ano_opmv_cbtracking_ctrl.o(i.ANO_CBTracking_Task) for ANO_CBTracking_Task
    ano_scheduler.o(i.Loop_Task_8) refers to ano_opmv_ctrl.o(i.ANO_OPMV_Ctrl_Task) for ANO_OPMV_Ctrl_Task
    ano_scheduler.o(i.Loop_Task_8) refers to ano_rc.o(.bss) for CH_N
    ano_scheduler.o(i.Loop_Task_8) refers to ano_scheduler.o(.data) for wcc
    ano_scheduler.o(i.Loop_Task_8) refers to drv_openmv.o(.bss) for opmv
    ano_scheduler.o(i.Loop_Task_9) refers to ano_power.o(i.Power_UpdateTask) for Power_UpdateTask
    ano_scheduler.o(i.Loop_Task_9) refers to drv_heating.o(i.Thermostatic_Ctrl_Task) for Thermostatic_Ctrl_Task
    ano_scheduler.o(i.Loop_Task_9) refers to ano_parameter.o(i.Ano_Parame_Write_task) for Ano_Parame_Write_task
    ano_scheduler.o(i.Main_Task) refers to ano_scheduler.o(i.Loop_Task_0) for Loop_Task_0
    ano_scheduler.o(i.Main_Task) refers to drv_bsp.o(i.GetSysRunTimeUs) for GetSysRunTimeUs
    ano_scheduler.o(i.Main_Task) refers to ano_scheduler.o(.data) for lt0_run_flag
    ano_scheduler.o(.data) refers to ano_scheduler.o(i.Loop_Task_1) for Loop_Task_1
    ano_scheduler.o(.data) refers to ano_scheduler.o(i.Loop_Task_2) for Loop_Task_2
    ano_scheduler.o(.data) refers to ano_scheduler.o(i.Loop_Task_5) for Loop_Task_5
    ano_scheduler.o(.data) refers to ano_scheduler.o(i.Loop_Task_8) for Loop_Task_8
    ano_scheduler.o(.data) refers to ano_scheduler.o(i.Loop_Task_9) for Loop_Task_9
    ano_parameter.o(i.Ano_Parame_Read) refers to drv_paramter.o(i.Dvr_ParamterRead) for Dvr_ParamterRead
    ano_parameter.o(i.Ano_Parame_Read) refers to ano_parameter.o(i.Parame_Reset) for Parame_Reset
    ano_parameter.o(i.Ano_Parame_Read) refers to ano_parameter.o(i.PID_Rest) for PID_Rest
    ano_parameter.o(i.Ano_Parame_Read) refers to ano_parameter.o(i.Ano_Parame_Write) for Ano_Parame_Write
    ano_parameter.o(i.Ano_Parame_Read) refers to ano_parameter.o(i.Parame_Copy_Para2fc) for Parame_Copy_Para2fc
    ano_parameter.o(i.Ano_Parame_Read) refers to ano_parameter.o(.bss) for Ano_Parame
    ano_parameter.o(i.Ano_Parame_Write) refers to ano_flightctrl.o(i.All_PID_Init) for All_PID_Init
    ano_parameter.o(i.Ano_Parame_Write) refers to ano_parameter.o(i.Parame_Copy_Fc2para) for Parame_Copy_Fc2para
    ano_parameter.o(i.Ano_Parame_Write) refers to drv_paramter.o(i.Dvr_ParamterSave) for Dvr_ParamterSave
    ano_parameter.o(i.Ano_Parame_Write) refers to ano_parameter.o(.bss) for Ano_Parame
    ano_parameter.o(i.Ano_Parame_Write_task) refers to ano_parameter.o(i.Ano_Parame_Write) for Ano_Parame_Write
    ano_parameter.o(i.Ano_Parame_Write_task) refers to ano_dt.o(i.ANO_DT_SendString) for ANO_DT_SendString
    ano_parameter.o(i.Ano_Parame_Write_task) refers to ano_parameter.o(.data) for para_sta
    ano_parameter.o(i.Ano_Parame_Write_task) refers to ano_led.o(.bss) for LED_STA
    ano_parameter.o(i.PID_Rest) refers to ano_dt.o(i.ANO_DT_SendString) for ANO_DT_SendString
    ano_parameter.o(i.PID_Rest) refers to ano_parameter.o(.bss) for Ano_Parame
    ano_parameter.o(i.Parame_Copy_Fc2para) refers to ano_fcdata.o(.bss) for save
    ano_parameter.o(i.Parame_Copy_Fc2para) refers to ano_parameter.o(.bss) for Ano_Parame
    ano_parameter.o(i.Parame_Copy_Para2fc) refers to ano_sensor_basic.o(i.Center_Pos_Set) for Center_Pos_Set
    ano_parameter.o(i.Parame_Copy_Para2fc) refers to ano_parameter.o(.bss) for Ano_Parame
    ano_parameter.o(i.Parame_Copy_Para2fc) refers to ano_fcdata.o(.bss) for save
    ano_parameter.o(i.Parame_Reset) refers to ano_parameter.o(i.Parame_Copy_Para2fc) for Parame_Copy_Para2fc
    ano_parameter.o(i.Parame_Reset) refers to ano_dt.o(i.ANO_DT_SendString) for ANO_DT_SendString
    ano_parameter.o(i.Parame_Reset) refers to ano_parameter.o(.bss) for Ano_Parame
    ano_flyctrl.o(i.FlyCtrlDataAnl) refers to ano_flyctrl.o(.data) for val
    ano_flyctrl.o(i.FlyCtrlDataAnl) refers to ano_flyctrl.o(.bss) for program_ctrl
    ano_flyctrl.o(i.FlyCtrlReset) refers to ano_flyctrl.o(.data) for cmd_take_off_f
    ano_flyctrl.o(i.FlyCtrlReset) refers to ano_flyctrl.o(.bss) for program_ctrl
    ano_flyctrl.o(i.FlyCtrl_Task) refers to ano_flyctrl.o(i.FlyCtrlReset) for FlyCtrlReset
    ano_flyctrl.o(i.FlyCtrl_Task) refers to ano_dt.o(i.ANO_DT_SendString) for ANO_DT_SendString
    ano_flyctrl.o(i.FlyCtrl_Task) refers to ano_flightctrl.o(i.one_key_take_off) for one_key_take_off
    ano_flyctrl.o(i.FlyCtrl_Task) refers to ano_flightctrl.o(i.one_key_land) for one_key_land
    ano_flyctrl.o(i.FlyCtrl_Task) refers to ano_flyctrl.o(.bss) for program_ctrl
    ano_flyctrl.o(i.FlyCtrl_Task) refers to ano_fcdata.o(.bss) for flag
    ano_flyctrl.o(i.FlyCtrl_Task) refers to ano_fcdata.o(.data) for switchs
    ano_flyctrl.o(i.FlyCtrl_Task) refers to ano_flyctrl.o(.data) for cmd_take_off_f
    ano_flyctrl.o(i.FlyCtrl_Task) refers to ano_imu.o(i.h2w_2d_trans) for h2w_2d_trans
    ano_flyctrl.o(i.FlyCtrl_Task) refers to ano_imu.o(i.w2h_2d_trans) for w2h_2d_trans
    ano_flyctrl.o(i.FlyCtrl_Task) refers to ano_imu.o(.data) for imu_data
    ano_dt.o(i.ANO_DT_Data_Exchange) refers to ano_dt.o(i.ANO_DT_Send_Version) for ANO_DT_Send_Version
    ano_dt.o(i.ANO_DT_Data_Exchange) refers to ano_dt.o(i.ANO_DT_SendParame) for ANO_DT_SendParame
    ano_dt.o(i.ANO_DT_Data_Exchange) refers to ano_dt.o(i.ANO_DT_Send_Status) for ANO_DT_Send_Status
    ano_dt.o(i.ANO_DT_Data_Exchange) refers to ano_dt.o(i.ANO_DT_Send_Speed) for ANO_DT_Send_Speed
    ano_dt.o(i.ANO_DT_Data_Exchange) refers to ano_dt.o(i.ANO_DT_Send_User) for ANO_DT_Send_User
    ano_dt.o(i.ANO_DT_Data_Exchange) refers to ano_dt.o(i.ANO_DT_Send_Senser) for ANO_DT_Send_Senser
    ano_dt.o(i.ANO_DT_Data_Exchange) refers to ano_dt.o(i.ANO_DT_Send_Senser2) for ANO_DT_Send_Senser2
    ano_dt.o(i.ANO_DT_Data_Exchange) refers to ano_dt.o(i.ANO_DT_Send_RCData) for ANO_DT_Send_RCData
    ano_dt.o(i.ANO_DT_Data_Exchange) refers to ano_dt.o(i.ANO_DT_Send_MotoPWM) for ANO_DT_Send_MotoPWM
    ano_dt.o(i.ANO_DT_Data_Exchange) refers to ano_dt.o(i.ANO_DT_Send_Power) for ANO_DT_Send_Power
    ano_dt.o(i.ANO_DT_Data_Exchange) refers to ano_dt.o(i.ANO_DT_SendSensorSta) for ANO_DT_SendSensorSta
    ano_dt.o(i.ANO_DT_Data_Exchange) refers to dfixi.o(.text) for __aeabi_d2iz
    ano_dt.o(i.ANO_DT_Data_Exchange) refers to ano_dt.o(.data) for cnt
    ano_dt.o(i.ANO_DT_Data_Exchange) refers to ano_dt.o(.bss) for f
    ano_dt.o(i.ANO_DT_Data_Exchange) refers to ano_fcdata.o(.bss) for flag
    ano_dt.o(i.ANO_DT_Data_Exchange) refers to ano_motioncal.o(.bss) for wcz_hei_fus
    ano_dt.o(i.ANO_DT_Data_Exchange) refers to ano_imu.o(.data) for imu_data
    ano_dt.o(i.ANO_DT_Data_Exchange) refers to ano_locctrl.o(.bss) for loc_ctrl_1
    ano_dt.o(i.ANO_DT_Data_Exchange) refers to ano_magprocess.o(.data) for mag
    ano_dt.o(i.ANO_DT_Data_Exchange) refers to ano_sensor_basic.o(.bss) for sensor
    ano_dt.o(i.ANO_DT_Data_Exchange) refers to ano_flightdatacal.o(.data) for ref_tof_height
    ano_dt.o(i.ANO_DT_Data_Exchange) refers to ano_rc.o(.data) for chn_en_bit
    ano_dt.o(i.ANO_DT_Data_Exchange) refers to ano_rc.o(.bss) for CH_N
    ano_dt.o(i.ANO_DT_Data_Exchange) refers to ano_motorctrl.o(.data) for motor
    ano_dt.o(i.ANO_DT_Data_Exchange) refers to ano_power.o(.data) for Plane_Votage
    ano_dt.o(i.ANO_DT_Data_Exchange) refers to ano_fcdata.o(.data) for switchs
    ano_dt.o(i.ANO_DT_Data_Exchange) refers to drv_gps.o(.bss) for Gps_information
    ano_dt.o(i.ANO_DT_Data_Exchange) refers to ano_dt.o(i.ANO_DT_Send_Location) for ANO_DT_Send_Location
    ano_dt.o(i.ANO_DT_Data_Exchange) refers to ano_dt.o(i.ANO_DT_Send_VER) for ANO_DT_Send_VER
    ano_dt.o(i.ANO_DT_Data_Exchange) refers to ano_dt.o(i.ANO_DT_Data_Receive_Anl_Task) for ANO_DT_Data_Receive_Anl_Task
    ano_dt.o(i.ANO_DT_Data_Receive_Anl) refers to ano_parameter.o(i.PID_Rest) for PID_Rest
    ano_dt.o(i.ANO_DT_Data_Receive_Anl) refers to ano_flightctrl.o(i.All_PID_Init) for All_PID_Init
    ano_dt.o(i.ANO_DT_Data_Receive_Anl) refers to ano_fcdata.o(i.data_save) for data_save
    ano_dt.o(i.ANO_DT_Data_Receive_Anl) refers to ano_parameter.o(i.Parame_Reset) for Parame_Reset
    ano_dt.o(i.ANO_DT_Data_Receive_Anl) refers to ano_flyctrl.o(i.FlyCtrlDataAnl) for FlyCtrlDataAnl
    ano_dt.o(i.ANO_DT_Data_Receive_Anl) refers to ano_dt.o(i.ANO_DT_SendCmd) for ANO_DT_SendCmd
    ano_dt.o(i.ANO_DT_Data_Receive_Anl) refers to ano_dt.o(i.ANO_DT_GetParame) for ANO_DT_GetParame
    ano_dt.o(i.ANO_DT_Data_Receive_Anl) refers to ano_sensor_basic.o(.bss) for sensor
    ano_dt.o(i.ANO_DT_Data_Receive_Anl) refers to ano_magprocess.o(.data) for mag
    ano_dt.o(i.ANO_DT_Data_Receive_Anl) refers to ano_dt.o(.bss) for f
    ano_dt.o(i.ANO_DT_Data_Receive_Anl_Task) refers to ano_dt.o(i.ANO_DT_Data_Receive_Anl) for ANO_DT_Data_Receive_Anl
    ano_dt.o(i.ANO_DT_Data_Receive_Anl_Task) refers to ano_usb.o(i.AnoUsbCdcRead) for AnoUsbCdcRead
    ano_dt.o(i.ANO_DT_Data_Receive_Anl_Task) refers to ano_dt.o(i.ANO_DT_Data_Receive_Prepare_USB) for ANO_DT_Data_Receive_Prepare_USB
    ano_dt.o(i.ANO_DT_Data_Receive_Anl_Task) refers to ano_dt.o(.data) for ano_dt_data_ok
    ano_dt.o(i.ANO_DT_Data_Receive_Anl_Task) refers to ano_dt.o(.bss) for DT_RxBuffer
    ano_dt.o(i.ANO_DT_Data_Receive_Prepare) refers to ano_dt.o(.data) for state
    ano_dt.o(i.ANO_DT_Data_Receive_Prepare) refers to ano_dt.o(.bss) for DT_RxBuffer
    ano_dt.o(i.ANO_DT_Data_Receive_Prepare_USB) refers to ano_dt.o(.data) for state
    ano_dt.o(i.ANO_DT_Data_Receive_Prepare_USB) refers to ano_dt.o(.bss) for DT_RxBuffer_USB
    ano_dt.o(i.ANO_DT_GetParame) refers to ano_dt.o(i.ANO_DT_ParListToParUsed) for ANO_DT_ParListToParUsed
    ano_dt.o(i.ANO_DT_GetParame) refers to ano_fcdata.o(i.data_save) for data_save
    ano_dt.o(i.ANO_DT_GetParame) refers to ano_dt.o(.bss) for ParValList
    ano_dt.o(i.ANO_DT_ParListToParUsed) refers to ano_dt.o(.bss) for ParValList
    ano_dt.o(i.ANO_DT_ParListToParUsed) refers to ano_parameter.o(.bss) for Ano_Parame
    ano_dt.o(i.ANO_DT_ParUsedToParList) refers to ano_parameter.o(.bss) for Ano_Parame
    ano_dt.o(i.ANO_DT_ParUsedToParList) refers to ano_dt.o(.bss) for ParValList
    ano_dt.o(i.ANO_DT_SendCmd) refers to ano_dt.o(i.ANO_DT_Send_Data) for ANO_DT_Send_Data
    ano_dt.o(i.ANO_DT_SendCmd) refers to ano_dt.o(.bss) for data_to_send
    ano_dt.o(i.ANO_DT_SendParame) refers to ano_dt.o(i.ANO_DT_ParUsedToParList) for ANO_DT_ParUsedToParList
    ano_dt.o(i.ANO_DT_SendParame) refers to ano_dt.o(i.ANO_DT_Send_Data) for ANO_DT_Send_Data
    ano_dt.o(i.ANO_DT_SendParame) refers to ano_dt.o(.bss) for ParValList
    ano_dt.o(i.ANO_DT_SendSensorSta) refers to ano_dt.o(i.ANO_DT_Send_Data) for ANO_DT_Send_Data
    ano_dt.o(i.ANO_DT_SendSensorSta) refers to ano_dt.o(.bss) for data_to_send
    ano_dt.o(i.ANO_DT_SendStrVal) refers to ano_dt.o(i.ANO_DT_Send_Data) for ANO_DT_Send_Data
    ano_dt.o(i.ANO_DT_SendStrVal) refers to ano_dt.o(.bss) for data_to_send
    ano_dt.o(i.ANO_DT_SendString) refers to ano_dt.o(i.ANO_DT_Send_Data) for ANO_DT_Send_Data
    ano_dt.o(i.ANO_DT_SendString) refers to ano_dt.o(.bss) for data_to_send
    ano_dt.o(i.ANO_DT_Send_Data) refers to ano_usb.o(i.AnoUsbCdcSend) for AnoUsbCdcSend
    ano_dt.o(i.ANO_DT_Send_Data) refers to drv_uart.o(i.Drv_Uart2SendBuf) for Drv_Uart2SendBuf
    ano_dt.o(i.ANO_DT_Send_Data) refers to ano_dt.o(.bss) for data_to_send
    ano_dt.o(i.ANO_DT_Send_Location) refers to ano_dt.o(i.ANO_DT_Send_Data) for ANO_DT_Send_Data
    ano_dt.o(i.ANO_DT_Send_Location) refers to ano_dt.o(.bss) for data_to_send
    ano_dt.o(i.ANO_DT_Send_MotoPWM) refers to ano_dt.o(i.ANO_DT_Send_Data) for ANO_DT_Send_Data
    ano_dt.o(i.ANO_DT_Send_MotoPWM) refers to ano_dt.o(.bss) for data_to_send
    ano_dt.o(i.ANO_DT_Send_Power) refers to ano_dt.o(i.ANO_DT_Send_Data) for ANO_DT_Send_Data
    ano_dt.o(i.ANO_DT_Send_Power) refers to ano_dt.o(.bss) for data_to_send
    ano_dt.o(i.ANO_DT_Send_RCData) refers to ano_dt.o(i.ANO_DT_Send_Data) for ANO_DT_Send_Data
    ano_dt.o(i.ANO_DT_Send_RCData) refers to ano_dt.o(.bss) for data_to_send
    ano_dt.o(i.ANO_DT_Send_Senser) refers to ano_dt.o(i.ANO_DT_Send_Data) for ANO_DT_Send_Data
    ano_dt.o(i.ANO_DT_Send_Senser) refers to ano_dt.o(.bss) for data_to_send
    ano_dt.o(i.ANO_DT_Send_Senser2) refers to ano_dt.o(i.ANO_DT_Send_Data) for ANO_DT_Send_Data
    ano_dt.o(i.ANO_DT_Send_Senser2) refers to ano_dt.o(.bss) for data_to_send
    ano_dt.o(i.ANO_DT_Send_Speed) refers to ano_dt.o(i.ANO_DT_Send_Data) for ANO_DT_Send_Data
    ano_dt.o(i.ANO_DT_Send_Speed) refers to ano_dt.o(.bss) for data_to_send
    ano_dt.o(i.ANO_DT_Send_Status) refers to ano_dt.o(i.ANO_DT_Send_Data) for ANO_DT_Send_Data
    ano_dt.o(i.ANO_DT_Send_Status) refers to ano_dt.o(.bss) for data_to_send
    ano_dt.o(i.ANO_DT_Send_User) refers to ano_dt.o(i.ANO_DT_Send_Data) for ANO_DT_Send_Data
    ano_dt.o(i.ANO_DT_Send_User) refers to ano_dt.o(.bss) for data_to_send
    ano_dt.o(i.ANO_DT_Send_User) refers to ano_motioncal.o(.bss) for wcz_acc_fus
    ano_dt.o(i.ANO_DT_Send_User) refers to ano_motioncal.o(.data) for wcz_ref_speed
    ano_dt.o(i.ANO_DT_Send_User) refers to ano_motorctrl.o(.bss) for mc
    ano_dt.o(i.ANO_DT_Send_User) refers to ano_fcdata.o(.data) for switchs
    ano_dt.o(i.ANO_DT_Send_User) refers to ano_flightdatacal.o(.data) for ref_tof_height
    ano_dt.o(i.ANO_DT_Send_VER) refers to ano_dt.o(i.ANO_DT_Send_Data) for ANO_DT_Send_Data
    ano_dt.o(i.ANO_DT_Send_Version) refers to ano_dt.o(i.ANO_DT_Send_Data) for ANO_DT_Send_Data
    ano_dt.o(i.ANO_DT_Send_Version) refers to ano_dt.o(.bss) for data_to_send
    ano_rc.o(i.RC_duty_task) refers to ano_rc.o(i.unlock) for unlock
    ano_rc.o(i.RC_duty_task) refers to ano_rc.o(i.stick_function) for stick_function
    ano_rc.o(i.RC_duty_task) refers to ano_rc.o(i.ch_watch_dog) for ch_watch_dog
    ano_rc.o(i.RC_duty_task) refers to ano_rc.o(i.fail_safe_check) for fail_safe_check
    ano_rc.o(i.RC_duty_task) refers to ano_fcdata.o(.bss) for flag
    ano_rc.o(i.RC_duty_task) refers to ano_rc.o(.data) for RC_IN_MODE
    ano_rc.o(i.RC_duty_task) refers to drv_rcin.o(.bss) for RC_PPM
    ano_rc.o(i.RC_duty_task) refers to ano_rc.o(.bss) for CH_N
    ano_rc.o(i.Remote_Control_Init) refers to drv_rcin.o(i.Drv_SbusInit) for Drv_SbusInit
    ano_rc.o(i.Remote_Control_Init) refers to drv_rcin.o(i.Drv_PpmInit) for Drv_PpmInit
    ano_rc.o(i.Remote_Control_Init) refers to ano_parameter.o(.bss) for Ano_Parame
    ano_rc.o(i.Remote_Control_Init) refers to ano_rc.o(.data) for RC_IN_MODE
    ano_rc.o(i.ch_watch_dog) refers to ano_rc.o(.bss) for cwd_cnt
    ano_rc.o(i.ch_watch_dog) refers to ano_rc.o(.data) for chn_en_bit
    ano_rc.o(i.ch_watch_dog_feed) refers to ano_rc.o(.bss) for cwd_cnt
    ano_rc.o(i.fail_safe) refers to ano_rc.o(.bss) for CH_N
    ano_rc.o(i.fail_safe) refers to ano_fcdata.o(.bss) for flag
    ano_rc.o(i.fail_safe) refers to ano_fcdata.o(.data) for switchs
    ano_rc.o(i.fail_safe_check) refers to ano_rc.o(i.fail_safe) for fail_safe
    ano_rc.o(i.fail_safe_check) refers to ano_rc.o(.data) for cnt
    ano_rc.o(i.fail_safe_check) refers to ano_fcdata.o(.bss) for flag
    ano_rc.o(i.fail_safe_check) refers to ano_led.o(.bss) for LED_STA
    ano_rc.o(i.stick_function) refers to ano_rc.o(i.stick_function_check_longpress) for stick_function_check_longpress
    ano_rc.o(i.stick_function) refers to ano_rc.o(i.stick_function_check) for stick_function_check
    ano_rc.o(i.stick_function) refers to ano_fcdata.o(.bss) for flag
    ano_rc.o(i.stick_function) refers to ano_rc.o(.bss) for CH_N
    ano_rc.o(i.stick_function) refers to ano_rc.o(.data) for stick_fun_2
    ano_rc.o(i.stick_function) refers to ano_sensor_basic.o(.bss) for sensor
    ano_rc.o(i.stick_function) refers to ano_magprocess.o(.data) for mag
    ano_rc.o(i.unlock) refers to ano_dt.o(i.ANO_DT_SendString) for ANO_DT_SendString
    ano_rc.o(i.unlock) refers to ano_rc.o(i.stick_function_check_longpress) for stick_function_check_longpress
    ano_rc.o(i.unlock) refers to ano_fcdata.o(.bss) for flag
    ano_rc.o(i.unlock) refers to ano_parameter.o(.data) for para_sta
    ano_rc.o(i.unlock) refers to ano_led.o(.bss) for LED_STA
    ano_rc.o(i.unlock) refers to ano_rc.o(.bss) for CH_N
    ano_rc.o(i.unlock) refers to ano_rc.o(.data) for stick_fun_0
    ano_led.o(i.LED_1ms_DRV) refers to drv_led.o(i.Drv_LedOnOff) for Drv_LedOnOff
    ano_led.o(i.LED_1ms_DRV) refers to ano_led.o(.data) for led_cnt
    ano_led.o(i.LED_Task2) refers to ano_led.o(i.ledOnOff) for ledOnOff
    ano_led.o(i.LED_Task2) refers to ano_led.o(i.ledFlash) for ledFlash
    ano_led.o(i.LED_Task2) refers to ano_led.o(i.ledBreath) for ledBreath
    ano_led.o(i.LED_Task2) refers to ano_led.o(.bss) for LED_STA
    ano_led.o(i.LED_Task2) refers to ano_led.o(.data) for timtmp
    ano_led.o(i.LED_Task2) refers to ano_fcdata.o(.bss) for flag
    ano_led.o(i.LED_Task2) refers to ano_fcdata.o(.data) for switchs
    ano_led.o(i.LED_Task2) refers to drv_openmv.o(.bss) for opmv
    ano_led.o(i.ledBreath) refers to ano_led.o(.data) for dir
    ano_led.o(i.ledFlash) refers to ano_led.o(i.ledOnOff) for ledOnOff
    ano_led.o(i.ledFlash) refers to ano_led.o(.data) for tim_tmp
    ano_led.o(i.ledOnOff) refers to ano_led.o(.data) for LED_Brightness
    ano_usb.o(i.AnoUsbCdcDataAvailable) refers to usbbuffer.o(i.USBBufferDataAvailable) for USBBufferDataAvailable
    ano_usb.o(i.AnoUsbCdcDataAvailable) refers to usb_serial_structs.o(.data) for g_sRxBuffer
    ano_usb.o(i.AnoUsbCdcInit) refers to usbbuffer.o(i.USBBufferInit) for USBBufferInit
    ano_usb.o(i.AnoUsbCdcInit) refers to usbmode.o(i.USBStackModeSet) for USBStackModeSet
    ano_usb.o(i.AnoUsbCdcInit) refers to usbdcdc.o(i.USBDCDCInit) for USBDCDCInit
    ano_usb.o(i.AnoUsbCdcInit) refers to usb.o(i.USBIntRegister) for USBIntRegister
    ano_usb.o(i.AnoUsbCdcInit) refers to usb_serial_structs.o(.data) for g_sTxBuffer
    ano_usb.o(i.AnoUsbCdcInit) refers to usbdhandler.o(i.USB0DeviceIntHandler) for USB0DeviceIntHandler
    ano_usb.o(i.AnoUsbCdcRead) refers to usbbuffer.o(i.USBBufferRead) for USBBufferRead
    ano_usb.o(i.AnoUsbCdcRead) refers to ano_usb.o(.data) for g_bUSBConfigured
    ano_usb.o(i.AnoUsbCdcRead) refers to usb_serial_structs.o(.data) for g_sRxBuffer
    ano_usb.o(i.AnoUsbCdcSend) refers to usbbuffer.o(i.USBBufferWrite) for USBBufferWrite
    ano_usb.o(i.AnoUsbCdcSend) refers to ano_usb.o(.data) for g_bUSBConfigured
    ano_usb.o(i.AnoUsbCdcSend) refers to usb_serial_structs.o(.data) for g_sTxBuffer
    ano_usb.o(i.ControlHandler) refers to usbbuffer.o(i.USBBufferFlush) for USBBufferFlush
    ano_usb.o(i.ControlHandler) refers to ano_usb.o(.data) for g_bUSBConfigured
    ano_usb.o(i.ControlHandler) refers to usb_serial_structs.o(.data) for g_sTxBuffer
    ano_programctrl_user.o(i.Program_Ctrl_User_Set_HXYcmps) refers to ano_math.o(i.length_limit) for length_limit
    ano_programctrl_user.o(i.Program_Ctrl_User_Set_HXYcmps) refers to ano_programctrl_user.o(.bss) for pc_user
    ano_programctrl_user.o(i.Program_Ctrl_User_Set_YAWdps) refers to ano_programctrl_user.o(.bss) for pc_user
    ano_programctrl_user.o(i.Program_Ctrl_User_Set_Zcmps) refers to ano_programctrl_user.o(.bss) for pc_user
    ano_of_decofusion.o(i.ANO_OFDF_Task) refers to ano_of_decofusion.o(i.OF_State) for OF_State
    ano_of_decofusion.o(i.ANO_OFDF_Task) refers to ano_of_decofusion.o(i.ANO_OF_Decouple) for ANO_OF_Decouple
    ano_of_decofusion.o(i.ANO_OFDF_Task) refers to ano_of_decofusion.o(i.ANO_OF_Fusion) for ANO_OF_Fusion
    ano_of_decofusion.o(i.ANO_OFDF_Task) refers to drv_laser.o(.data) for Laser_height_cm
    ano_of_decofusion.o(i.ANO_OF_Data_Get) refers to ano_of_decofusion.o(.data) for of_buf_update_flag
    ano_of_decofusion.o(i.ANO_OF_Data_Get) refers to drv_up_flow.o(.data) for of_buf_update_cnt
    ano_of_decofusion.o(i.ANO_OF_Data_Get) refers to ano_of_decofusion.o(.bss) for of_data
    ano_of_decofusion.o(i.ANO_OF_Data_Prepare_Task) refers to ano_of_decofusion.o(i.ANO_OF_Data_Get) for ANO_OF_Data_Get
    ano_of_decofusion.o(i.ANO_OF_Data_Prepare_Task) refers to ano_of_decofusion.o(i.OF_INS_Get) for OF_INS_Get
    ano_of_decofusion.o(i.ANO_OF_Data_Prepare_Task) refers to drv_up_flow.o(.bss) for OF_DATA
    ano_of_decofusion.o(i.ANO_OF_Data_Prepare_Task) refers to ano_imu.o(.data) for imu_data
    ano_of_decofusion.o(i.ANO_OF_Data_Prepare_Task) refers to ano_sensor_basic.o(.bss) for sensor
    ano_of_decofusion.o(i.ANO_OF_Decouple) refers to ano_of_decofusion.o(.bss) for of_data
    ano_of_decofusion.o(i.ANO_OF_Decouple) refers to ano_of_decofusion.o(.data) for of_rot_d_degs
    ano_of_decofusion.o(i.ANO_OF_Fusion) refers to ano_imu.o(i.h2w_2d_trans) for h2w_2d_trans
    ano_of_decofusion.o(i.ANO_OF_Fusion) refers to ano_of_decofusion.o(i.OF_INS_Reset) for OF_INS_Reset
    ano_of_decofusion.o(i.ANO_OF_Fusion) refers to ano_imu.o(i.w2h_2d_trans) for w2h_2d_trans
    ano_of_decofusion.o(i.ANO_OF_Fusion) refers to ano_of_decofusion.o(.bss) for of_rdf
    ano_of_decofusion.o(i.ANO_OF_Fusion) refers to ano_imu.o(.data) for imu_data
    ano_of_decofusion.o(i.ANO_OF_Fusion) refers to ano_of_decofusion.o(.data) for F_KP
    ano_of_decofusion.o(i.OF_INS_Get) refers to ano_of_decofusion.o(.data) for rad_ps_lpf
    ano_of_decofusion.o(i.OF_INS_Get) refers to ano_of_decofusion.o(.bss) for of_rdf
    ano_of_decofusion.o(i.OF_INS_Reset) refers to ano_of_decofusion.o(.bss) for of_rdf
    ano_of_decofusion.o(i.OF_INS_Reset) refers to ano_of_decofusion.o(.data) for of_fus_err_i
    ano_of_decofusion.o(i.OF_State) refers to ano_imu.o(.data) for imu_state
    ano_of_decofusion.o(i.OF_State) refers to ano_of_decofusion.o(.bss) for of_rdf
    ano_of_decofusion.o(i.OF_State) refers to drv_laser.o(.data) for LASER_LINKOK
    ano_of_decofusion.o(i.OF_State) refers to ano_fcdata.o(.bss) for sens_hd_check
    ano_opmv_cbtracking_ctrl.o(i.ANO_CBTracking_Calcu) refers to ano_opmv_cbtracking_ctrl.o(.data) for relative_height_cm_valid
    ano_opmv_cbtracking_ctrl.o(i.ANO_CBTracking_Calcu) refers to ano_opmv_cbtracking_ctrl.o(.bss) for ano_opmv_cbt_ctrl
    ano_opmv_cbtracking_ctrl.o(i.ANO_CBTracking_Ctrl) refers to ano_opmv_cbtracking_ctrl.o(.bss) for ano_opmv_cbt_ctrl
    ano_opmv_cbtracking_ctrl.o(i.ANO_CBTracking_Decoupling) refers to drv_openmv.o(.bss) for opmv
    ano_opmv_cbtracking_ctrl.o(i.ANO_CBTracking_Decoupling) refers to ano_opmv_cbtracking_ctrl.o(.bss) for ano_opmv_cbt_ctrl
    ano_opmv_cbtracking_ctrl.o(i.ANO_CBTracking_Decoupling) refers to ano_opmv_cbtracking_ctrl.o(.data) for target_loss_hold_time
    ano_opmv_cbtracking_ctrl.o(i.ANO_CBTracking_Decoupling) refers to ano_of.o(.data) for OF_DX2FIX
    ano_opmv_cbtracking_ctrl.o(i.ANO_CBTracking_Task) refers to ano_opmv_cbtracking_ctrl.o(i.ANO_CBTracking_Decoupling) for ANO_CBTracking_Decoupling
    ano_opmv_cbtracking_ctrl.o(i.ANO_CBTracking_Task) refers to ano_opmv_cbtracking_ctrl.o(i.ANO_CBTracking_Calcu) for ANO_CBTracking_Calcu
    ano_opmv_cbtracking_ctrl.o(i.ANO_CBTracking_Task) refers to drv_openmv.o(.bss) for opmv
    ano_opmv_cbtracking_ctrl.o(i.ANO_CBTracking_Task) refers to ano_opmv_ctrl.o(.data) for opmv_ct_sta
    ano_opmv_cbtracking_ctrl.o(i.ANO_CBTracking_Task) refers to ano_imu.o(.data) for imu_data
    ano_opmv_cbtracking_ctrl.o(i.ANO_CBTracking_Task) refers to ano_flightctrl.o(.data) for jsdata
    ano_opmv_cbtracking_ctrl.o(i.ANO_CBTracking_Task) refers to ano_opmv_cbtracking_ctrl.o(.bss) for ano_opmv_cbt_ctrl
    ano_opmv_linetracking_ctrl.o(i.ANO_LT_StepProcedure) refers to ano_opmv_linetracking_ctrl.o(.data) for step_pro_sta
    ano_opmv_linetracking_ctrl.o(i.ANO_LT_StepProcedure) refers to ano_opmv_linetracking_ctrl.o(.bss) for ano_opmv_lt_ctrl
    ano_opmv_linetracking_ctrl.o(i.ANO_LT_StepProcedure) refers to drv_openmv.o(.bss) for opmv
    ano_opmv_linetracking_ctrl.o(i.ANO_LTracking_Calcu) refers to ano_opmv_linetracking_ctrl.o(.data) for relative_height_cm_valid
    ano_opmv_linetracking_ctrl.o(i.ANO_LTracking_Calcu) refers to ano_opmv_linetracking_ctrl.o(.bss) for ano_opmv_lt_ctrl
    ano_opmv_linetracking_ctrl.o(i.ANO_LTracking_Ctrl) refers to ano_opmv_linetracking_ctrl.o(i.ANO_LT_StepProcedure) for ANO_LT_StepProcedure
    ano_opmv_linetracking_ctrl.o(i.ANO_LTracking_Ctrl) refers to ano_opmv_linetracking_ctrl.o(.bss) for ano_opmv_lt_ctrl
    ano_opmv_linetracking_ctrl.o(i.ANO_LTracking_Ctrl) refers to drv_openmv.o(.bss) for opmv
    ano_opmv_linetracking_ctrl.o(i.ANO_LTracking_Ctrl) refers to ano_opmv_linetracking_ctrl.o(.data) for step_pro_sta
    ano_opmv_linetracking_ctrl.o(i.ANO_LTracking_Decoupling) refers to drv_openmv.o(.bss) for opmv
    ano_opmv_linetracking_ctrl.o(i.ANO_LTracking_Decoupling) refers to ano_opmv_linetracking_ctrl.o(.bss) for ano_opmv_lt_ctrl
    ano_opmv_linetracking_ctrl.o(i.ANO_LTracking_Decoupling) refers to ano_opmv_linetracking_ctrl.o(.data) for line_loss_hold_time
    ano_opmv_linetracking_ctrl.o(i.ANO_LTracking_Task) refers to ano_opmv_linetracking_ctrl.o(i.ANO_LTracking_Decoupling) for ANO_LTracking_Decoupling
    ano_opmv_linetracking_ctrl.o(i.ANO_LTracking_Task) refers to ano_opmv_linetracking_ctrl.o(i.ANO_LTracking_Calcu) for ANO_LTracking_Calcu
    ano_opmv_linetracking_ctrl.o(i.ANO_LTracking_Task) refers to drv_openmv.o(.bss) for opmv
    ano_opmv_linetracking_ctrl.o(i.ANO_LTracking_Task) refers to ano_opmv_ctrl.o(.data) for opmv_ct_sta
    ano_opmv_linetracking_ctrl.o(i.ANO_LTracking_Task) refers to ano_imu.o(.data) for imu_data
    ano_opmv_linetracking_ctrl.o(i.ANO_LTracking_Task) refers to ano_flightctrl.o(.data) for jsdata
    ano_opmv_linetracking_ctrl.o(i.ANO_LTracking_Task) refers to ano_opmv_linetracking_ctrl.o(.bss) for ano_opmv_lt_ctrl
    ano_opmv_ctrl.o(i.ANO_OPMV_Ctrl_Task) refers to ano_opmv_cbtracking_ctrl.o(i.ANO_CBTracking_Ctrl) for ANO_CBTracking_Ctrl
    ano_opmv_ctrl.o(i.ANO_OPMV_Ctrl_Task) refers to ano_programctrl_user.o(i.Program_Ctrl_User_Set_HXYcmps) for Program_Ctrl_User_Set_HXYcmps
    ano_opmv_ctrl.o(i.ANO_OPMV_Ctrl_Task) refers to ano_opmv_linetracking_ctrl.o(i.ANO_LTracking_Ctrl) for ANO_LTracking_Ctrl
    ano_opmv_ctrl.o(i.ANO_OPMV_Ctrl_Task) refers to ano_programctrl_user.o(i.Program_Ctrl_User_Set_YAWdps) for Program_Ctrl_User_Set_YAWdps
    ano_opmv_ctrl.o(i.ANO_OPMV_Ctrl_Task) refers to ano_flightctrl.o(.data) for jsdata
    ano_opmv_ctrl.o(i.ANO_OPMV_Ctrl_Task) refers to ano_opmv_ctrl.o(.data) for opmv_ct_sta
    ano_opmv_ctrl.o(i.ANO_OPMV_Ctrl_Task) refers to ano_fcdata.o(.bss) for flag
    ano_opmv_ctrl.o(i.ANO_OPMV_Ctrl_Task) refers to ano_fcdata.o(.data) for switchs
    ano_opmv_ctrl.o(i.ANO_OPMV_Ctrl_Task) refers to drv_openmv.o(.bss) for opmv
    ano_opmv_ctrl.o(i.ANO_OPMV_Ctrl_Task) refers to ano_opmv_cbtracking_ctrl.o(.bss) for ano_opmv_cbt_ctrl
    ano_opmv_ctrl.o(i.ANO_OPMV_Ctrl_Task) refers to ano_opmv_linetracking_ctrl.o(.bss) for ano_opmv_lt_ctrl
    startup_tm4c123.o(RESET) refers to startup_tm4c123.o(STACK) for __initial_sp
    startup_tm4c123.o(RESET) refers to startup_tm4c123.o(.text) for Reset_Handler
    startup_tm4c123.o(RESET) refers to drv_bsp.o(i.SysTick_Handler) for SysTick_Handler
    startup_tm4c123.o(.text) refers to system_tm4c123.o(i.SystemInit) for SystemInit
    startup_tm4c123.o(.text) refers to entry.o(.ARM.Collect$$$$00000000) for __main
    system_tm4c123.o(i.SystemCoreClockUpdate) refers to system_tm4c123.o(i.getOscClk) for getOscClk
    system_tm4c123.o(i.SystemCoreClockUpdate) refers to system_tm4c123.o(.data) for SystemCoreClock
    usb_serial_structs.o(.data) refers to ano_usb.o(i.ControlHandler) for ControlHandler
    usb_serial_structs.o(.data) refers to usbbuffer.o(i.USBBufferEventCallback) for USBBufferEventCallback
    usb_serial_structs.o(.data) refers to usb_serial_structs.o(.constdata) for g_ppui8StringDescriptors
    usb_serial_structs.o(.data) refers to ano_usb.o(i.RxHandler) for RxHandler
    usb_serial_structs.o(.data) refers to usbdcdc.o(i.USBDCDCPacketRead) for USBDCDCPacketRead
    usb_serial_structs.o(.data) refers to usbdcdc.o(i.USBDCDCRxPacketAvailable) for USBDCDCRxPacketAvailable
    usb_serial_structs.o(.data) refers to usb_serial_structs.o(.bss) for g_pui8USBRxBuffer
    usb_serial_structs.o(.data) refers to ano_usb.o(i.TxHandler) for TxHandler
    usb_serial_structs.o(.data) refers to usbdcdc.o(i.USBDCDCPacketWrite) for USBDCDCPacketWrite
    usb_serial_structs.o(.data) refers to usbdcdc.o(i.USBDCDCTxPacketAvailable) for USBDCDCTxPacketAvailable
    drv_bsp.o(i.Drv_BspInit) refers to ano_usb.o(i.AnoUsbCdcInit) for AnoUsbCdcInit
    drv_bsp.o(i.Drv_BspInit) refers to drv_uart.o(i.Drv_Uart2Init) for Drv_Uart2Init
    drv_bsp.o(i.Drv_BspInit) refers to drv_paramter.o(i.Dvr_ParamterInit) for Dvr_ParamterInit
    drv_bsp.o(i.Drv_BspInit) refers to ano_fcdata.o(i.Para_Data_Init) for Para_Data_Init
    drv_bsp.o(i.Drv_BspInit) refers to drv_led.o(i.Dvr_LedInit) for Dvr_LedInit
    drv_bsp.o(i.Drv_BspInit) refers to ano_rc.o(i.Remote_Control_Init) for Remote_Control_Init
    drv_bsp.o(i.Drv_BspInit) refers to drv_spi.o(i.Drv_Spi0Init) for Drv_Spi0Init
    drv_bsp.o(i.Drv_BspInit) refers to drv_bsp.o(i.Drv_SenserCsPinInit) for Drv_SenserCsPinInit
    drv_bsp.o(i.Drv_BspInit) refers to drv_icm20602.o(i.Drv_Icm20602Init) for Drv_Icm20602Init
    drv_bsp.o(i.Drv_BspInit) refers to drv_spl06.o(i.Drv_Spl0601Init) for Drv_Spl0601Init
    drv_bsp.o(i.Drv_BspInit) refers to drv_pwmout.o(i.Drv_PwmOutInit) for Drv_PwmOutInit
    drv_bsp.o(i.Drv_BspInit) refers to drv_adc.o(i.Drv_AdcInit) for Drv_AdcInit
    drv_bsp.o(i.Drv_BspInit) refers to drv_bsp.o(i.SysTick_Init) for SysTick_Init
    drv_bsp.o(i.Drv_BspInit) refers to drv_uart.o(i.Drv_Uart3Init) for Drv_Uart3Init
    drv_bsp.o(i.Drv_BspInit) refers to drv_gps.o(i.Drv_GpsPin_Init) for Drv_GpsPin_Init
    drv_bsp.o(i.Drv_BspInit) refers to drv_uart.o(i.Drv_Uart4Init) for Drv_Uart4Init
    drv_bsp.o(i.Drv_BspInit) refers to drv_uart.o(i.Drv_Uart5Init) for Drv_Uart5Init
    drv_bsp.o(i.Drv_BspInit) refers to drv_up_flow.o(i.Drv_OFInit) for Drv_OFInit
    drv_bsp.o(i.Drv_BspInit) refers to drv_laser.o(i.Drv_Laser_Init) for Drv_Laser_Init
    drv_bsp.o(i.Drv_BspInit) refers to ano_sensor_basic.o(i.Sensor_Basic_Init) for Sensor_Basic_Init
    drv_bsp.o(i.Drv_BspInit) refers to ano_flightctrl.o(i.All_PID_Init) for All_PID_Init
    drv_bsp.o(i.Drv_BspInit) refers to ano_fcdata.o(.bss) for sens_hd_check
    drv_bsp.o(i.Drv_BspInit) refers to drv_bsp.o(.data) for of_init_type
    drv_bsp.o(i.Drv_SenserCsPinInit) refers to drv_icm20602.o(i.Drv_Icm20602CSPinInit) for Drv_Icm20602CSPinInit
    drv_bsp.o(i.Drv_SenserCsPinInit) refers to drv_ak8975.o(i.Drv_AK8975CSPinInit) for Drv_AK8975CSPinInit
    drv_bsp.o(i.Drv_SenserCsPinInit) refers to drv_spl06.o(i.Drv_SPL06CSPinInit) for Drv_SPL06CSPinInit
    drv_bsp.o(i.GetSysRunTimeMs) refers to drv_bsp.o(.data) for SysRunTimeMs
    drv_bsp.o(i.GetSysRunTimeUs) refers to drv_bsp.o(.data) for SysRunTimeMs
    drv_bsp.o(i.SysTick_Handler) refers to drv_bsp.o(.data) for SysRunTimeMs
    drv_adc.o(i.ADC0Handler) refers to dfltui.o(.text) for __aeabi_ui2d
    drv_adc.o(i.ADC0Handler) refers to dmul.o(.text) for __aeabi_dmul
    drv_adc.o(i.ADC0Handler) refers to ddiv.o(.text) for __aeabi_ddiv
    drv_adc.o(i.ADC0Handler) refers to d2f.o(.text) for __aeabi_d2f
    drv_adc.o(i.ADC0Handler) refers to drv_adc.o(.data) for Voltage
    drv_adc.o(i.Drv_AdcInit) refers to adc.o(i.ADCIntRegister) for ADCIntRegister
    drv_adc.o(i.Drv_AdcInit) refers to drv_adc.o(i.ADC0Handler) for ADC0Handler
    drv_led.o(i.Dvr_LedInit) refers to drv_led.o(i.Drv_LedOnOff) for Drv_LedOnOff
    drv_paramter.o(i.Dvr_ParamterRead) refers to ano_parameter.o(.bss) for Ano_Parame
    drv_paramter.o(i.Dvr_ParamterSave) refers to ano_parameter.o(.bss) for Ano_Parame
    drv_rcin.o(i.Drv_PpmInit) refers to timer.o(i.TimerIntRegister) for TimerIntRegister
    drv_rcin.o(i.Drv_PpmInit) refers to drv_rcin.o(i.PPM_Decode) for PPM_Decode
    drv_rcin.o(i.Drv_SbusInit) refers to sysctl.o(i.SysCtlClockGet) for SysCtlClockGet
    drv_rcin.o(i.Drv_SbusInit) refers to uart.o(i.UARTIntRegister) for UARTIntRegister
    drv_rcin.o(i.Drv_SbusInit) refers to drv_rcin.o(i.Sbus_IRQHandler) for Sbus_IRQHandler
    drv_rcin.o(i.PPM_Cal) refers to ano_rc.o(i.ch_watch_dog_feed) for ch_watch_dog_feed
    drv_rcin.o(i.PPM_Cal) refers to drv_rcin.o(.data) for Chan
    drv_rcin.o(i.PPM_Cal) refers to drv_rcin.o(.bss) for RC_PPM
    drv_rcin.o(i.PPM_Decode) refers to drv_rcin.o(i.PPM_Cal) for PPM_Cal
    drv_rcin.o(i.PPM_Decode) refers to drv_rcin.o(.data) for PeriodVal1
    drv_rcin.o(i.Sbus_Decode) refers to ano_rc.o(i.ch_watch_dog_feed) for ch_watch_dog_feed
    drv_rcin.o(i.Sbus_Decode) refers to drv_rcin.o(.data) for DataCnt
    drv_rcin.o(i.Sbus_Decode) refers to drv_rcin.o(.bss) for SUBS_RawData
    drv_rcin.o(i.Sbus_IRQHandler) refers to drv_rcin.o(i.Sbus_Decode) for Sbus_Decode
    drv_pwmout.o(i.Drv_PwmOutInit) refers to drv_pwmout.o(i.Drv_HeatSet) for Drv_HeatSet
    drv_pwmout.o(i.Drv_PwmOutInit) refers to drv_pwmout.o(i.Drv_MotorPWMSet) for Drv_MotorPWMSet
    drv_spi.o(i.Drv_Spi0Receive) refers to drv_spi.o(i.Drv_Spi0SingleWirteAndRead) for Drv_Spi0SingleWirteAndRead
    drv_spi.o(i.Drv_Spi0Transmit) refers to drv_spi.o(i.Drv_Spi0SingleWirteAndRead) for Drv_Spi0SingleWirteAndRead
    drv_uart.o(i.Drv_Uart1Init) refers to uart.o(i.UARTIntRegister) for UARTIntRegister
    drv_uart.o(i.Drv_Uart1Init) refers to drv_uart.o(i.UART1_IRQHandler) for UART1_IRQHandler
    drv_uart.o(i.Drv_Uart1SendBuf) refers to drv_uart.o(i.Drv_Uart1TxCheck) for Drv_Uart1TxCheck
    drv_uart.o(i.Drv_Uart1SendBuf) refers to drv_uart.o(.data) for U1TxInCnt
    drv_uart.o(i.Drv_Uart1SendBuf) refers to drv_uart.o(.bss) for U1TxDataTemp
    drv_uart.o(i.Drv_Uart1TxCheck) refers to drv_uart.o(.data) for U1TxOutCnt
    drv_uart.o(i.Drv_Uart1TxCheck) refers to drv_uart.o(.bss) for U1TxDataTemp
    drv_uart.o(i.Drv_Uart2Init) refers to uart.o(i.UARTIntRegister) for UARTIntRegister
    drv_uart.o(i.Drv_Uart2Init) refers to drv_uart.o(i.UART2_IRQHandler) for UART2_IRQHandler
    drv_uart.o(i.Drv_Uart2SendBuf) refers to drv_uart.o(i.Drv_Uart2TxCheck) for Drv_Uart2TxCheck
    drv_uart.o(i.Drv_Uart2SendBuf) refers to drv_uart.o(.data) for U2TxInCnt
    drv_uart.o(i.Drv_Uart2SendBuf) refers to drv_uart.o(.bss) for U2TxDataTemp
    drv_uart.o(i.Drv_Uart2TxCheck) refers to drv_uart.o(.data) for U2TxOutCnt
    drv_uart.o(i.Drv_Uart2TxCheck) refers to drv_uart.o(.bss) for U2TxDataTemp
    drv_uart.o(i.Drv_Uart3Init) refers to uart.o(i.UARTIntRegister) for UARTIntRegister
    drv_uart.o(i.Drv_Uart3Init) refers to drv_uart.o(i.UART3_IRQHandler) for UART3_IRQHandler
    drv_uart.o(i.Drv_Uart3SendBuf) refers to drv_uart.o(i.Drv_Uart3TxCheck) for Drv_Uart3TxCheck
    drv_uart.o(i.Drv_Uart3SendBuf) refers to drv_uart.o(.data) for U3TxInCnt
    drv_uart.o(i.Drv_Uart3SendBuf) refers to drv_uart.o(.bss) for U3TxDataTemp
    drv_uart.o(i.Drv_Uart3TxCheck) refers to drv_uart.o(.data) for U3TxOutCnt
    drv_uart.o(i.Drv_Uart3TxCheck) refers to drv_uart.o(.bss) for U3TxDataTemp
    drv_uart.o(i.Drv_Uart4Init) refers to uart.o(i.UARTIntRegister) for UARTIntRegister
    drv_uart.o(i.Drv_Uart4Init) refers to drv_uart.o(i.UART4_IRQHandler) for UART4_IRQHandler
    drv_uart.o(i.Drv_Uart4SendBuf) refers to drv_uart.o(i.Drv_Uart4TxCheck) for Drv_Uart4TxCheck
    drv_uart.o(i.Drv_Uart4SendBuf) refers to drv_uart.o(.data) for U4TxInCnt
    drv_uart.o(i.Drv_Uart4SendBuf) refers to drv_uart.o(.bss) for U4TxDataTemp
    drv_uart.o(i.Drv_Uart4TxCheck) refers to drv_uart.o(.data) for U4TxOutCnt
    drv_uart.o(i.Drv_Uart4TxCheck) refers to drv_uart.o(.bss) for U4TxDataTemp
    drv_uart.o(i.Drv_Uart5Init) refers to uart.o(i.UARTIntRegister) for UARTIntRegister
    drv_uart.o(i.Drv_Uart5Init) refers to drv_uart.o(i.UART5_IRQHandler) for UART5_IRQHandler
    drv_uart.o(i.Drv_Uart5SendBuf) refers to drv_uart.o(i.Drv_Uart5TxCheck) for Drv_Uart5TxCheck
    drv_uart.o(i.Drv_Uart5SendBuf) refers to drv_uart.o(.data) for U5TxInCnt
    drv_uart.o(i.Drv_Uart5SendBuf) refers to drv_uart.o(.bss) for U5TxDataTemp
    drv_uart.o(i.Drv_Uart5TxCheck) refers to drv_uart.o(.data) for U5TxOutCnt
    drv_uart.o(i.Drv_Uart5TxCheck) refers to drv_uart.o(.bss) for U5TxDataTemp
    drv_uart.o(i.UART1_IRQHandler) refers to drv_gps.o(i.Drv_GpsGetOneByte) for Drv_GpsGetOneByte
    drv_uart.o(i.UART1_IRQHandler) refers to drv_uart.o(i.Drv_Uart1TxCheck) for Drv_Uart1TxCheck
    drv_uart.o(i.UART2_IRQHandler) refers to ano_dt.o(i.ANO_DT_Data_Receive_Prepare) for ANO_DT_Data_Receive_Prepare
    drv_uart.o(i.UART2_IRQHandler) refers to drv_uart.o(i.Drv_Uart2TxCheck) for Drv_Uart2TxCheck
    drv_uart.o(i.UART3_IRQHandler) refers to drv_openmv.o(i.OpenMV_Byte_Get) for OpenMV_Byte_Get
    drv_uart.o(i.UART3_IRQHandler) refers to drv_uart.o(i.Drv_Uart3TxCheck) for Drv_Uart3TxCheck
    drv_uart.o(i.UART4_IRQHandler) refers to ano_of.o(i.AnoOF_GetOneByte) for AnoOF_GetOneByte
    drv_uart.o(i.UART4_IRQHandler) refers to drv_up_flow.o(i.OFGetByte) for OFGetByte
    drv_uart.o(i.UART4_IRQHandler) refers to drv_uart.o(i.Drv_Uart4TxCheck) for Drv_Uart4TxCheck
    drv_uart.o(i.UART4_IRQHandler) refers to drv_bsp.o(.data) for of_init_type
    drv_uart.o(i.UART5_IRQHandler) refers to drv_laser.o(i.Drv_Laser_GetOneByte) for Drv_Laser_GetOneByte
    drv_uart.o(i.UART5_IRQHandler) refers to drv_uart.o(i.Drv_Uart5TxCheck) for Drv_Uart5TxCheck
    drv_icm20602.o(i.Drv_Icm20602Init) refers to drv_icm20602.o(i.icm20602_writebyte) for icm20602_writebyte
    drv_icm20602.o(i.Drv_Icm20602Init) refers to drv_bsp.o(i.MyDelayMs) for MyDelayMs
    drv_icm20602.o(i.Drv_Icm20602Init) refers to drv_icm20602.o(i.icm20602_readbuf) for icm20602_readbuf
    drv_icm20602.o(i.Drv_Icm20602Init) refers to drv_icm20602.o(i.icm20602_INT_Config) for icm20602_INT_Config
    drv_icm20602.o(i.Drv_Icm20602Init) refers to drv_icm20602.o(.data) for ICM_ID
    drv_icm20602.o(i.Drv_Icm20602IrqHandler) refers to gpio.o(i.GPIOIntClear) for GPIOIntClear
    drv_icm20602.o(i.Drv_Icm20602IrqHandler) refers to ano_scheduler.o(i.INT_1ms_Task) for INT_1ms_Task
    drv_icm20602.o(i.Drv_Icm20602ReadyPinInit) refers to gpio.o(i.GPIOIntRegister) for GPIOIntRegister
    drv_icm20602.o(i.Drv_Icm20602ReadyPinInit) refers to gpio.o(i.GPIOIntEnable) for GPIOIntEnable
    drv_icm20602.o(i.Drv_Icm20602ReadyPinInit) refers to drv_icm20602.o(i.Drv_Icm20602IrqHandler) for Drv_Icm20602IrqHandler
    drv_icm20602.o(i.Drv_Icm20602_Read) refers to drv_icm20602.o(i.icm20602_readbuf) for icm20602_readbuf
    drv_icm20602.o(i.Drv_Icm20602_Read) refers to drv_icm20602.o(i.ICM_Get_Data) for ICM_Get_Data
    drv_icm20602.o(i.Drv_Icm20602_Read) refers to drv_icm20602.o(.bss) for mpu_buffer
    drv_icm20602.o(i.ICM_Get_Data) refers to drv_icm20602.o(.bss) for mpu_buffer
    drv_icm20602.o(i.ICM_Get_Data) refers to ano_sensor_basic.o(.bss) for sensor
    drv_icm20602.o(i.icm20602_INT_Config) refers to drv_icm20602.o(i.icm20602_setIntEnabled) for icm20602_setIntEnabled
    drv_icm20602.o(i.icm20602_readbuf) refers to drv_icm20602.o(i.icm20602_enable) for icm20602_enable
    drv_icm20602.o(i.icm20602_readbuf) refers to drv_spi.o(i.Drv_Spi0SingleWirteAndRead) for Drv_Spi0SingleWirteAndRead
    drv_icm20602.o(i.icm20602_readbuf) refers to drv_spi.o(i.Drv_Spi0Receive) for Drv_Spi0Receive
    drv_icm20602.o(i.icm20602_setIntEnabled) refers to drv_icm20602.o(i.icm20602_writeBit) for icm20602_writeBit
    drv_icm20602.o(i.icm20602_setIntEnabled) refers to drv_icm20602.o(i.Drv_Icm20602ReadyPinInit) for Drv_Icm20602ReadyPinInit
    drv_icm20602.o(i.icm20602_writeBit) refers to drv_icm20602.o(i.icm20602_readbuf) for icm20602_readbuf
    drv_icm20602.o(i.icm20602_writeBit) refers to drv_icm20602.o(i.icm20602_writebyte) for icm20602_writebyte
    drv_icm20602.o(i.icm20602_writebyte) refers to drv_icm20602.o(i.icm20602_enable) for icm20602_enable
    drv_icm20602.o(i.icm20602_writebyte) refers to drv_spi.o(i.Drv_Spi0SingleWirteAndRead) for Drv_Spi0SingleWirteAndRead
    drv_ak8975.o(i.Drv_AK8975_Read) refers to drv_ak8975.o(i.ak8975_enable) for ak8975_enable
    drv_ak8975.o(i.Drv_AK8975_Read) refers to drv_spi.o(i.Drv_Spi0SingleWirteAndRead) for Drv_Spi0SingleWirteAndRead
    drv_ak8975.o(i.Drv_AK8975_Read) refers to drv_ak8975.o(i.ak8975_Trig) for ak8975_Trig
    drv_ak8975.o(i.Drv_AK8975_Read) refers to drv_ak8975.o(.data) for ak8975_buf
    drv_ak8975.o(i.Mag_Get) refers to drv_ak8975.o(.data) for ak8975_buf
    drv_ak8975.o(i.ak8975_Trig) refers to drv_ak8975.o(i.ak8975_enable) for ak8975_enable
    drv_ak8975.o(i.ak8975_Trig) refers to drv_spi.o(i.Drv_Spi0SingleWirteAndRead) for Drv_Spi0SingleWirteAndRead
    drv_spl06.o(i.Drv_Spl0601Init) refers to drv_spl06.o(i.spl0601_read) for spl0601_read
    drv_spl06.o(i.Drv_Spl0601Init) refers to drv_spl06.o(i.spl0601_get_calib_param) for spl0601_get_calib_param
    drv_spl06.o(i.Drv_Spl0601Init) refers to drv_spl06.o(i.spl0601_rateset) for spl0601_rateset
    drv_spl06.o(i.Drv_Spl0601Init) refers to drv_spl06.o(i.spl0601_start_continuous) for spl0601_start_continuous
    drv_spl06.o(i.Drv_Spl0601Init) refers to drv_spl06.o(.bss) for spl0601
    drv_spl06.o(i.Drv_Spl0601Init) refers to drv_spl06.o(.data) for p_spl0601
    drv_spl06.o(i.Drv_Spl0601_Read) refers to drv_spl06.o(i.spl0601_get_raw_temp) for spl0601_get_raw_temp
    drv_spl06.o(i.Drv_Spl0601_Read) refers to drv_spl06.o(i.spl0601_get_temperature) for spl0601_get_temperature
    drv_spl06.o(i.Drv_Spl0601_Read) refers to drv_spl06.o(i.spl0601_get_raw_pressure) for spl0601_get_raw_pressure
    drv_spl06.o(i.Drv_Spl0601_Read) refers to drv_spl06.o(i.spl0601_get_pressure) for spl0601_get_pressure
    drv_spl06.o(i.Drv_Spl0601_Read) refers to drv_spl06.o(.data) for temperature
    drv_spl06.o(i.spl0601_get_calib_param) refers to drv_spl06.o(i.spl0601_read) for spl0601_read
    drv_spl06.o(i.spl0601_get_calib_param) refers to drv_spl06.o(.data) for p_spl0601
    drv_spl06.o(i.spl0601_get_pressure) refers to drv_spl06.o(.data) for p_spl0601
    drv_spl06.o(i.spl0601_get_raw_pressure) refers to drv_spl06.o(i.spl0601_read) for spl0601_read
    drv_spl06.o(i.spl0601_get_raw_pressure) refers to drv_spl06.o(.data) for p_spl0601
    drv_spl06.o(i.spl0601_get_raw_temp) refers to drv_spl06.o(i.spl0601_read) for spl0601_read
    drv_spl06.o(i.spl0601_get_raw_temp) refers to drv_spl06.o(.data) for p_spl0601
    drv_spl06.o(i.spl0601_get_temperature) refers to f2d.o(.text) for __aeabi_f2d
    drv_spl06.o(i.spl0601_get_temperature) refers to dflti.o(.text) for __aeabi_i2d
    drv_spl06.o(i.spl0601_get_temperature) refers to dmul.o(.text) for __aeabi_dmul
    drv_spl06.o(i.spl0601_get_temperature) refers to dadd.o(.text) for __aeabi_dadd
    drv_spl06.o(i.spl0601_get_temperature) refers to d2f.o(.text) for __aeabi_d2f
    drv_spl06.o(i.spl0601_get_temperature) refers to drv_spl06.o(.data) for p_spl0601
    drv_spl06.o(i.spl0601_rateset) refers to drv_spl06.o(i.spl0601_write) for spl0601_write
    drv_spl06.o(i.spl0601_rateset) refers to drv_spl06.o(i.spl0601_read) for spl0601_read
    drv_spl06.o(i.spl0601_rateset) refers to drv_spl06.o(.data) for p_spl0601
    drv_spl06.o(i.spl0601_read) refers to drv_spl06.o(i.spl06_enable) for spl06_enable
    drv_spl06.o(i.spl0601_read) refers to drv_spi.o(i.Drv_Spi0SingleWirteAndRead) for Drv_Spi0SingleWirteAndRead
    drv_spl06.o(i.spl0601_start_continuous) refers to drv_spl06.o(i.spl0601_write) for spl0601_write
    drv_spl06.o(i.spl0601_start_pressure) refers to drv_spl06.o(i.spl0601_write) for spl0601_write
    drv_spl06.o(i.spl0601_start_temperature) refers to drv_spl06.o(i.spl0601_write) for spl0601_write
    drv_spl06.o(i.spl0601_write) refers to drv_spl06.o(i.spl06_enable) for spl06_enable
    drv_spl06.o(i.spl0601_write) refers to drv_spi.o(i.Drv_Spi0SingleWirteAndRead) for Drv_Spi0SingleWirteAndRead
    drv_gps.o(i.Drv_GpsGetOneByte) refers to drv_gps.o(i.GPS_ubx_check_sum) for GPS_ubx_check_sum
    drv_gps.o(i.Drv_GpsGetOneByte) refers to drv_gps.o(i.GPS_data_analysis) for GPS_data_analysis
    drv_gps.o(i.Drv_GpsGetOneByte) refers to drv_gps.o(.data) for GPS_get_cnt
    drv_gps.o(i.Drv_GpsGetOneByte) refers to drv_gps.o(.bss) for GPS_data_buff
    drv_gps.o(i.Drv_GpsPin_Init) refers to drv_bsp.o(i.MyDelayMs) for MyDelayMs
    drv_gps.o(i.Drv_GpsPin_Init) refers to drv_uart.o(i.Drv_Uart1Init) for Drv_Uart1Init
    drv_gps.o(i.Drv_GpsPin_Init) refers to drv_gps.o(i.gps_baudrate_config) for gps_baudrate_config
    drv_gps.o(i.Drv_GpsPin_Init) refers to drv_gps.o(i.gps_config) for gps_config
    drv_gps.o(i.GPS_Data_Processing_Task) refers to drv_gps.o(.data) for update_cnt
    drv_gps.o(i.GPS_Data_Processing_Task) refers to drv_gps.o(.bss) for Gps_information
    drv_gps.o(i.GPS_Data_Processing_Task) refers to ano_fcdata.o(.bss) for flag
    drv_gps.o(i.GPS_Data_Processing_Task) refers to ano_fcdata.o(.data) for switchs
    drv_gps.o(i.GPS_data_analysis) refers to dflti.o(.text) for __aeabi_i2d
    drv_gps.o(i.GPS_data_analysis) refers to dadd.o(.text) for __aeabi_dsub
    drv_gps.o(i.GPS_data_analysis) refers to dfixi.o(.text) for __aeabi_d2iz
    drv_gps.o(i.GPS_data_analysis) refers to drv_gps.o(.bss) for GPS_data_buff
    drv_gps.o(i.GPS_ubx_check_sum) refers to drv_gps.o(.data) for len
    drv_gps.o(i.UART_Write_D) refers to drv_uart.o(i.Drv_Uart1SendBuf) for Drv_Uart1SendBuf
    drv_gps.o(i.WCXY_Acc_Get_Task) refers to ano_imu.o(.data) for imu_data
    drv_gps.o(i.WCXY_Acc_Get_Task) refers to drv_gps.o(.data) for wcx_acc_use
    drv_gps.o(i.gps_baudrate_config) refers to drv_bsp.o(i.MyDelayMs) for MyDelayMs
    drv_gps.o(i.gps_baudrate_config) refers to drv_gps.o(i.UART_Write_D) for UART_Write_D
    drv_gps.o(i.gps_baudrate_config) refers to drv_gps.o(.constdata) for gps_petrol_out_config
    drv_gps.o(i.gps_config) refers to drv_bsp.o(i.MyDelayMs) for MyDelayMs
    drv_gps.o(i.gps_config) refers to drv_gps.o(i.UART_Write_D) for UART_Write_D
    drv_gps.o(i.gps_config) refers to drv_gps.o(.constdata) for gps_pvt_out_config
    ano_of.o(i.AnoOF_Check) refers to ano_of.o(.data) for of_check_f
    ano_of.o(i.AnoOF_Check) refers to ano_fcdata.o(.bss) for sens_hd_check
    ano_of.o(i.AnoOF_DataAnl) refers to ano_of.o(.data) for OF_STATE
    ano_of.o(i.AnoOF_DataAnl) refers to drv_bsp.o(.data) for of_init_type
    ano_of.o(i.AnoOF_DataAnl_Task) refers to ano_of.o(i.AnoOF_Check) for AnoOF_Check
    ano_of.o(i.AnoOF_GetOneByte) refers to ano_of.o(i.AnoOF_DataAnl) for AnoOF_DataAnl
    ano_of.o(i.AnoOF_GetOneByte) refers to ano_of.o(.data) for state
    ano_of.o(i.AnoOF_GetOneByte) refers to ano_of.o(.bss) for _datatemp
    ano_uwb.o(i.Ano_UWB_Data_Calcu_Task) refers to ano_imu.o(i.h2w_2d_trans) for h2w_2d_trans
    ano_uwb.o(i.Ano_UWB_Data_Calcu_Task) refers to ano_fcdata.o(.bss) for flag
    ano_uwb.o(i.Ano_UWB_Data_Calcu_Task) refers to ano_uwb.o(.bss) for uwb_data
    ano_uwb.o(i.Ano_UWB_Data_Calcu_Task) refers to ano_imu.o(.data) for imu_data
    ano_uwb.o(i.Ano_UWB_Get_Byte) refers to ano_uwb.o(.data) for _sta
    ano_uwb.o(i.Ano_UWB_Get_Byte) refers to ano_uwb.o(.bss) for _rx_buf
    ano_uwb.o(i.Ano_UWB_Get_Data_Task) refers to ano_uwb.o(.data) for UWB_Data_OK
    ano_uwb.o(i.Ano_UWB_Get_Data_Task) refers to ano_uwb.o(.bss) for UWB_RxBuffer
    drv_heating.o(i.Drv_HeatingSet) refers to drv_pwmout.o(i.Drv_HeatSet) for Drv_HeatSet
    drv_heating.o(i.Thermostatic_Ctrl_Task) refers to ano_dt.o(i.ANO_DT_SendString) for ANO_DT_SendString
    drv_heating.o(i.Thermostatic_Ctrl_Task) refers to drv_heating.o(i.Drv_HeatingSet) for Drv_HeatingSet
    drv_heating.o(i.Thermostatic_Ctrl_Task) refers to ano_fcdata.o(.bss) for flag
    drv_heating.o(i.Thermostatic_Ctrl_Task) refers to ano_parameter.o(.bss) for Ano_Parame
    drv_heating.o(i.Thermostatic_Ctrl_Task) refers to drv_heating.o(.data) for thermostatic_en
    drv_heating.o(i.Thermostatic_Ctrl_Task) refers to ano_sensor_basic.o(.bss) for sensor
    drv_heating.o(i.Thermostatic_Ctrl_Task) refers to drv_heating.o(.bss) for temperature_fb
    drv_openmv.o(i.OpenMV_Byte_Get) refers to drv_openmv.o(i.OpenMV_Data_Analysis) for OpenMV_Data_Analysis
    drv_openmv.o(i.OpenMV_Byte_Get) refers to drv_openmv.o(.bss) for openmv_buf
    drv_openmv.o(i.OpenMV_Byte_Get) refers to drv_openmv.o(.data) for rec_sta
    drv_openmv.o(i.OpenMV_Check_Reset) refers to drv_openmv.o(.data) for offline_check_time
    drv_openmv.o(i.OpenMV_Check_Reset) refers to drv_openmv.o(.bss) for opmv
    drv_openmv.o(i.OpenMV_Data_Analysis) refers to drv_openmv.o(i.OpenMV_Check_Reset) for OpenMV_Check_Reset
    drv_openmv.o(i.OpenMV_Data_Analysis) refers to drv_openmv.o(.bss) for opmv
    drv_openmv.o(i.OpenMV_Offline_Check) refers to drv_openmv.o(.data) for offline_check_time
    drv_openmv.o(i.OpenMV_Offline_Check) refers to drv_openmv.o(.bss) for opmv
    drv_up_flow.o(i.Drv_OFInit) refers to drv_uart.o(i.Drv_Uart4SendBuf) for Drv_Uart4SendBuf
    drv_up_flow.o(i.Drv_OFInit) refers to drv_bsp.o(i.MyDelayMs) for MyDelayMs
    drv_up_flow.o(i.Drv_OFInit) refers to drv_up_flow.o(.data) for of_init_cnt
    drv_up_flow.o(i.Drv_OFInit) refers to drv_up_flow.o(.bss) for com_getdata
    drv_up_flow.o(i.Drv_OFInit) refers to drv_up_flow.o(.constdata) for Sensor_cfg
    drv_up_flow.o(i.OFGetByte) refers to drv_up_flow.o(.data) for of_init_cnt
    drv_up_flow.o(i.OFGetByte) refers to drv_up_flow.o(.bss) for com_getdata
    drv_laser.o(i.Drv_Laser_GetOneByte) refers to drv_laser.o(.data) for sta
    drv_laser.o(i.Drv_Laser_GetOneByte) refers to drv_laser.o(.bss) for tmp
    drv_laser.o(i.Drv_Laser_Init) refers to drv_bsp.o(i.MyDelayMs) for MyDelayMs
    drv_laser.o(i.Drv_Laser_Init) refers to drv_laser.o(.data) for LASER_LINKOK
    drv_laser.o(i.Drv_Laser_Init) refers to ano_fcdata.o(.bss) for sens_hd_check
    ano_fcdata.o(i.Para_Data_Init) refers to ano_parameter.o(i.Ano_Parame_Read) for Ano_Parame_Read
    ano_fcdata.o(i.data_save) refers to ano_fcdata.o(.bss) for flag
    ano_fcdata.o(i.data_save) refers to ano_parameter.o(.data) for para_sta
    ano_filter.o(i.LPF_1_db) refers to dadd.o(.text) for __aeabi_dsub
    ano_filter.o(i.LPF_1_db) refers to f2d.o(.text) for __aeabi_f2d
    ano_filter.o(i.LPF_1_db) refers to dmul.o(.text) for __aeabi_dmul
    ano_filter.o(i.simple_3d_trans) refers to ano_math.o(i.my_sqrt) for my_sqrt
    ano_filter.o(i.simple_3d_trans) refers to ano_filter.o(.data) for h_tmp_x
    ano_filter.o(i.vec_3dh_transition) refers to ano_filter.o(i.simple_3d_trans) for simple_3d_trans
    ano_math.o(i.To_180_degrees_db) refers to cdrcmple.o(.text) for __aeabi_cdrcmple
    ano_math.o(i.To_180_degrees_db) refers to dadd.o(.text) for __aeabi_dsub
    ano_math.o(i.To_180_degrees_db) refers to cdcmple.o(.text) for __aeabi_cdcmple
    ano_math.o(i.fast_atan2) refers to ano_math.o(i.my_abs) for my_abs
    ano_math.o(i.fast_atan2) refers to ano_math.o(.constdata) for fast_atan_table
    ano_math.o(i.length_limit) refers to ano_math.o(i.my_sqrt) for my_sqrt
    ano_math.o(i.mx_sin) refers to cdcmple.o(.text) for __aeabi_cdcmple
    ano_math.o(i.mx_sin) refers to dmul.o(.text) for __aeabi_dmul
    ano_math.o(i.mx_sin) refers to dadd.o(.text) for __aeabi_dadd
    ano_math.o(i.my_atan) refers to ano_math.o(i.fast_atan2) for fast_atan2
    ano_math.o(i.my_cos) refers to dadd.o(.text) for __aeabi_dadd
    ano_math.o(i.my_cos) refers to cdrcmple.o(.text) for __aeabi_cdrcmple
    ano_math.o(i.my_cos) refers to dflti.o(.text) for __aeabi_i2d
    ano_math.o(i.my_cos) refers to ano_math.o(i.my_sin) for my_sin
    ano_math.o(i.my_cos) refers to dmul.o(.text) for __aeabi_dmul
    ano_math.o(i.my_cos) refers to d2f.o(.text) for __aeabi_d2f
    ano_math.o(i.my_sin) refers to cdrcmple.o(.text) for __aeabi_cdrcmple
    ano_math.o(i.my_sin) refers to dadd.o(.text) for __aeabi_dsub
    ano_math.o(i.my_sin) refers to dflti.o(.text) for __aeabi_i2d
    ano_math.o(i.my_sin) refers to ano_math.o(i.mx_sin) for mx_sin
    ano_math.o(i.my_sin) refers to dmul.o(.text) for __aeabi_dmul
    ano_math.o(i.my_sqrt) refers to ano_math.o(i.my_sqrt_reciprocal) for my_sqrt_reciprocal
    ano_math.o(i.rot_vec_2) refers to ano_math.o(i.my_sqrt) for my_sqrt
    ano_imu.o(i.IMU_update) refers to ano_math.o(i.my_sqrt_reciprocal) for my_sqrt_reciprocal
    ano_imu.o(i.IMU_update) refers to ano_imu.o(.data) for q0q1
    ano_imu.o(i.IMU_update) refers to ano_imu.o(.bss) for att_matrix
    ano_imu.o(i.IMU_update) refers to ano_imu.o(i.w2h_2d_trans) for w2h_2d_trans
    ano_imu.o(i.IMU_update) refers to ano_imu.o(i.a2w_3d_trans) for a2w_3d_trans
    ano_imu.o(i.IMU_update) refers to ano_math.o(i.vec_2_cross_product) for vec_2_cross_product
    ano_imu.o(i.IMU_update) refers to ano_math.o(i.vec_2_dot_product) for vec_2_dot_product
    ano_imu.o(i.a2w_3d_trans) refers to ano_imu.o(.bss) for att_matrix
    ano_imu.o(i.calculate_RPY) refers to ano_math.o(i.my_sqrt) for my_sqrt
    ano_imu.o(i.calculate_RPY) refers to ano_math.o(i.fast_atan2) for fast_atan2
    ano_imu.o(i.calculate_RPY) refers to ano_imu.o(.bss) for att_matrix
    ano_imu.o(i.calculate_RPY) refers to ano_imu.o(.data) for t_temp
    ano_sensor_basic.o(i.Center_Pos_Set) refers to ano_sensor_basic.o(.bss) for center_pos
    ano_sensor_basic.o(i.MPU6050_Data_Offset) refers to ano_fcdata.o(i.data_save) for data_save
    ano_sensor_basic.o(i.MPU6050_Data_Offset) refers to ano_sensor_basic.o(.bss) for sensor
    ano_sensor_basic.o(i.MPU6050_Data_Offset) refers to ano_fcdata.o(.bss) for flag
    ano_sensor_basic.o(i.MPU6050_Data_Offset) refers to ano_sensor_basic.o(.data) for gyro_sum_cnt
    ano_sensor_basic.o(i.MPU6050_Data_Offset) refers to ano_led.o(.bss) for LED_STA
    ano_sensor_basic.o(i.Sensor_Basic_Init) refers to ano_sensor_basic.o(i.Center_Pos_Set) for Center_Pos_Set
    ano_sensor_basic.o(i.Sensor_Basic_Init) refers to ano_sensor_basic.o(.bss) for sensor
    ano_sensor_basic.o(i.Sensor_Data_Prepare) refers to ano_sensor_basic.o(i.motionless_check) for motionless_check
    ano_sensor_basic.o(i.Sensor_Data_Prepare) refers to ano_sensor_basic.o(i.MPU6050_Data_Offset) for MPU6050_Data_Offset
    ano_sensor_basic.o(i.Sensor_Data_Prepare) refers to ano_sensor_basic.o(i.mpu_auto_az) for mpu_auto_az
    ano_sensor_basic.o(i.Sensor_Data_Prepare) refers to ano_sensor_basic.o(.bss) for sensor
    ano_sensor_basic.o(i.Sensor_Data_Prepare) refers to ano_fcdata.o(.bss) for save
    ano_sensor_basic.o(i.motionless_check) refers to ano_sensor_basic.o(.bss) for sensor
    ano_sensor_basic.o(i.motionless_check) refers to ano_sensor_basic.o(.data) for g_old
    ano_sensor_basic.o(i.motionless_check) refers to ano_fcdata.o(.bss) for flag
    ano_sensor_basic.o(i.mpu_auto_az) refers to ano_math.o(i.my_sqrt) for my_sqrt
    ano_sensor_basic.o(i.mpu_auto_az) refers to ano_sensor_basic.o(.bss) for sensor
    ano_sensor_basic.o(i.mpu_auto_az) refers to ano_led.o(.bss) for LED_STA
    ano_sensor_basic.o(i.mpu_auto_az) refers to ano_sensor_basic.o(.data) for acc_z_auto_cnt
    ano_sensor_basic.o(i.mpu_auto_az) refers to ano_fcdata.o(.bss) for save
    ano_motioncal.o(i.WCZ_Data_Calc) refers to ano_filter.o(i.inte_fix_filter) for inte_fix_filter
    ano_motioncal.o(i.WCZ_Data_Calc) refers to ano_math.o(i.my_deadzone) for my_deadzone
    ano_motioncal.o(i.WCZ_Data_Calc) refers to ano_filter.o(i.fix_inte_filter) for fix_inte_filter
    ano_motioncal.o(i.WCZ_Data_Calc) refers to ano_motioncal.o(.data) for wcz_ref_height
    ano_motioncal.o(i.WCZ_Data_Calc) refers to ano_imu.o(.data) for imu_data
    ano_motioncal.o(i.WCZ_Data_Calc) refers to ano_motioncal.o(.bss) for wcz_acc_fus
    ano_motioncal.o(i.WCZ_Data_Reset) refers to ano_motioncal.o(.bss) for wcz_acc_fus
    ano_motioncal.o(i.WCZ_Data_Reset) refers to ano_motioncal.o(.data) for wcz_acc
    ano_navigate.o(i.dlon_dlat_dx_dy) refers to ano_navigate.o(i.dlon_180) for dlon_180
    ano_navigate.o(i.dlon_dlat_dx_dy) refers to f2d.o(.text) for __aeabi_f2d
    ano_navigate.o(i.dlon_dlat_dx_dy) refers to ano_math.o(i.my_cos) for my_cos
    ano_altctrl.o(i.Alt_1level_Ctrl) refers to ano_pid.o(i.PID_calculate) for PID_calculate
    ano_altctrl.o(i.Alt_1level_Ctrl) refers to ano_fcdata.o(.bss) for flag
    ano_altctrl.o(i.Alt_1level_Ctrl) refers to ano_altctrl.o(.bss) for alt_val_2
    ano_altctrl.o(i.Alt_1level_Ctrl) refers to ano_flightctrl.o(.bss) for fs
    ano_altctrl.o(i.Alt_1level_Ctrl) refers to ano_locctrl.o(.bss) for loc_ctrl_1
    ano_altctrl.o(i.Alt_1level_Ctrl) refers to ano_imu.o(.data) for imu_data
    ano_altctrl.o(i.Alt_1level_Ctrl) refers to ano_altctrl.o(.data) for w_acc_z_lpf
    ano_altctrl.o(i.Alt_1level_Ctrl) refers to ano_motioncal.o(.bss) for wcz_spe_fus
    ano_altctrl.o(i.Alt_1level_Ctrl) refers to ano_parameter.o(.bss) for Ano_Parame
    ano_altctrl.o(i.Alt_1level_Ctrl) refers to ano_motorctrl.o(.bss) for mc
    ano_altctrl.o(i.Alt_1level_PID_Init) refers to ano_parameter.o(.bss) for Ano_Parame
    ano_altctrl.o(i.Alt_1level_PID_Init) refers to ano_altctrl.o(.bss) for alt_arg_1
    ano_altctrl.o(i.Alt_2level_Ctrl) refers to ano_altctrl.o(i.Auto_Take_Off_Land_Task) for Auto_Take_Off_Land_Task
    ano_altctrl.o(i.Alt_2level_Ctrl) refers to ano_pid.o(i.PID_calculate) for PID_calculate
    ano_altctrl.o(i.Alt_2level_Ctrl) refers to ano_flightctrl.o(.bss) for fs
    ano_altctrl.o(i.Alt_2level_Ctrl) refers to ano_altctrl.o(.data) for auto_taking_off_speed
    ano_altctrl.o(i.Alt_2level_Ctrl) refers to ano_locctrl.o(.bss) for loc_ctrl_2
    ano_altctrl.o(i.Alt_2level_Ctrl) refers to ano_motioncal.o(.bss) for wcz_hei_fus
    ano_altctrl.o(i.Alt_2level_Ctrl) refers to ano_fcdata.o(.bss) for flag
    ano_altctrl.o(i.Alt_2level_Ctrl) refers to ano_altctrl.o(.bss) for alt_val_2
    ano_altctrl.o(i.Alt_2level_PID_Init) refers to ano_parameter.o(.bss) for Ano_Parame
    ano_altctrl.o(i.Alt_2level_PID_Init) refers to ano_altctrl.o(.bss) for alt_arg_2
    ano_altctrl.o(i.Auto_Take_Off_Land_Task) refers to ano_flightctrl.o(i.one_key_take_off_task) for one_key_take_off_task
    ano_altctrl.o(i.Auto_Take_Off_Land_Task) refers to ano_fcdata.o(.bss) for flag
    ano_altctrl.o(i.Auto_Take_Off_Land_Task) refers to ano_altctrl.o(.data) for auto_taking_off_speed
    ano_altctrl.o(i.Auto_Take_Off_Land_Task) refers to ano_parameter.o(.bss) for Ano_Parame
    ano_altctrl.o(i.Auto_Take_Off_Land_Task) refers to ano_motioncal.o(.bss) for wcz_hei_fus
    ano_altctrl.o(i.Auto_Take_Off_Land_Task) refers to ano_locctrl.o(.bss) for loc_ctrl_2
    ano_altctrl.o(i.Auto_Take_Off_Land_Task) refers to ano_flightctrl.o(.bss) for fs
    ano_attctrl.o(i.Att_1level_Ctrl) refers to ano_flightctrl.o(i.ctrl_parameter_change_task) for ctrl_parameter_change_task
    ano_attctrl.o(i.Att_1level_Ctrl) refers to ano_pid.o(i.PID_calculate) for PID_calculate
    ano_attctrl.o(i.Att_1level_Ctrl) refers to ano_attctrl.o(.bss) for val_2
    ano_attctrl.o(i.Att_1level_Ctrl) refers to ano_sensor_basic.o(.bss) for sensor
    ano_attctrl.o(i.Att_1level_Ctrl) refers to ano_fcdata.o(.bss) for flag
    ano_attctrl.o(i.Att_1level_Ctrl) refers to ano_motorctrl.o(.bss) for mc
    ano_attctrl.o(i.Att_1level_PID_Init) refers to ano_parameter.o(.bss) for Ano_Parame
    ano_attctrl.o(i.Att_1level_PID_Init) refers to ano_attctrl.o(.bss) for arg_1
    ano_attctrl.o(i.Att_2level_Ctrl) refers to ano_math.o(i.my_deadzone) for my_deadzone
    ano_attctrl.o(i.Att_2level_Ctrl) refers to ano_locctrl.o(.bss) for loc_ctrl_1
    ano_attctrl.o(i.Att_2level_Ctrl) refers to ano_attctrl.o(.data) for exp_rol_tmp
    ano_attctrl.o(i.Att_2level_Ctrl) refers to ano_fcdata.o(.bss) for flag
    ano_attctrl.o(i.Att_2level_Ctrl) refers to ano_attctrl.o(.bss) for att_2l_ct
    ano_attctrl.o(i.Att_2level_Ctrl) refers to ano_flyctrl.o(.bss) for program_ctrl
    ano_attctrl.o(i.Att_2level_Ctrl) refers to ano_programctrl_user.o(.bss) for pc_user
    ano_attctrl.o(i.Att_2level_Ctrl) refers to ano_pid.o(i.PID_calculate) for PID_calculate
    ano_attctrl.o(i.Att_2level_Ctrl) refers to ano_imu.o(.data) for imu_data
    ano_attctrl.o(i.Att_2level_PID_Init) refers to ano_parameter.o(.bss) for Ano_Parame
    ano_attctrl.o(i.Att_2level_PID_Init) refers to ano_attctrl.o(.bss) for arg_2
    ano_attctrl.o(i.Set_Att_1level_Ki) refers to ano_attctrl.o(.bss) for arg_1
    ano_attctrl.o(i.Set_Att_1level_Ki) refers to ano_parameter.o(.bss) for Ano_Parame
    ano_attctrl.o(i.Set_Att_2level_Ki) refers to ano_attctrl.o(.bss) for arg_2
    ano_attctrl.o(i.Set_Att_2level_Ki) refers to ano_parameter.o(.bss) for Ano_Parame
    ano_flightctrl.o(i.All_PID_Init) refers to ano_attctrl.o(i.Att_1level_PID_Init) for Att_1level_PID_Init
    ano_flightctrl.o(i.All_PID_Init) refers to ano_attctrl.o(i.Att_2level_PID_Init) for Att_2level_PID_Init
    ano_flightctrl.o(i.All_PID_Init) refers to ano_altctrl.o(i.Alt_1level_PID_Init) for Alt_1level_PID_Init
    ano_flightctrl.o(i.All_PID_Init) refers to ano_altctrl.o(i.Alt_2level_PID_Init) for Alt_2level_PID_Init
    ano_flightctrl.o(i.All_PID_Init) refers to ano_locctrl.o(i.Loc_1level_PID_Init) for Loc_1level_PID_Init
    ano_flightctrl.o(i.Flight_Mode_Set) refers to ano_flightctrl.o(i.Speed_Mode_Switch) for Speed_Mode_Switch
    ano_flightctrl.o(i.Flight_Mode_Set) refers to ano_fcdata.o(.bss) for flag
    ano_flightctrl.o(i.Flight_Mode_Set) refers to ano_flightctrl.o(.data) for speed_mode_old
    ano_flightctrl.o(i.Flight_Mode_Set) refers to ano_rc.o(.bss) for CH_N
    ano_flightctrl.o(i.Flight_State_Task) refers to ano_math.o(i.my_deadzone) for my_deadzone
    ano_flightctrl.o(i.Flight_State_Task) refers to ano_math.o(i.length_limit) for length_limit
    ano_flightctrl.o(i.Flight_State_Task) refers to ano_flightctrl.o(i.land_discriminat) for land_discriminat
    ano_flightctrl.o(i.Flight_State_Task) refers to ano_motioncal.o(i.WCZ_Data_Reset) for WCZ_Data_Reset
    ano_flightctrl.o(i.Flight_State_Task) refers to ano_fcdata.o(.bss) for flag
    ano_flightctrl.o(i.Flight_State_Task) refers to ano_flightctrl.o(.bss) for fs
    ano_flightctrl.o(i.Flight_State_Task) refers to ano_flightctrl.o(.data) for flying_cnt
    ano_flightctrl.o(i.Flight_State_Task) refers to ano_flyctrl.o(.bss) for program_ctrl
    ano_flightctrl.o(i.Flight_State_Task) refers to ano_programctrl_user.o(.bss) for pc_user
    ano_flightctrl.o(i.Flight_State_Task) refers to ano_fcdata.o(.data) for switchs
    ano_flightctrl.o(i.Flight_State_Task) refers to ano_motioncal.o(.bss) for wcz_hei_fus
    ano_flightctrl.o(i.Flight_State_Task) refers to ano_attctrl.o(.bss) for rolling_flag
    ano_flightctrl.o(i.Flight_State_Task) refers to ano_imu.o(.data) for imu_data
    ano_flightctrl.o(i.Flight_State_Task) refers to ano_sensor_basic.o(.bss) for sensor
    ano_flightctrl.o(i.Flight_State_Task) refers to ano_led.o(.bss) for LED_STA
    ano_flightctrl.o(i.Flight_State_Task) refers to ano_dt.o(i.ANO_DT_SendString) for ANO_DT_SendString
    ano_flightctrl.o(i.Swtich_State_Task) refers to ano_fcdata.o(.data) for switchs
    ano_flightctrl.o(i.Swtich_State_Task) refers to ano_fcdata.o(.bss) for sens_hd_check
    ano_flightctrl.o(i.Swtich_State_Task) refers to ano_of.o(.data) for OF_QUALITY
    ano_flightctrl.o(i.Swtich_State_Task) refers to ano_flightctrl.o(.data) for jsdata
    ano_flightctrl.o(i.Swtich_State_Task) refers to ano_of_decofusion.o(.bss) for of_rdf
    ano_flightctrl.o(i.Swtich_State_Task) refers to drv_laser.o(.data) for Laser_height_cm
    ano_flightctrl.o(i.Swtich_State_Task) refers to ano_uwb.o(.bss) for uwb_data
    ano_flightctrl.o(i.Swtich_State_Task) refers to drv_openmv.o(.bss) for opmv
    ano_flightctrl.o(i.ctrl_parameter_change_task) refers to ano_attctrl.o(i.Set_Att_1level_Ki) for Set_Att_1level_Ki
    ano_flightctrl.o(i.ctrl_parameter_change_task) refers to ano_attctrl.o(i.Set_Att_2level_Ki) for Set_Att_2level_Ki
    ano_flightctrl.o(i.ctrl_parameter_change_task) refers to ano_fcdata.o(.bss) for flag
    ano_flightctrl.o(i.land_discriminat) refers to ano_flightctrl.o(.bss) for fs
    ano_flightctrl.o(i.land_discriminat) refers to ano_fcdata.o(.bss) for flag
    ano_flightctrl.o(i.land_discriminat) refers to ano_flightctrl.o(.data) for ld_delay_cnt
    ano_flightctrl.o(i.land_discriminat) refers to ano_motorctrl.o(.bss) for mc
    ano_flightctrl.o(i.one_key_land) refers to ano_fcdata.o(.bss) for flag
    ano_flightctrl.o(i.one_key_roll) refers to ano_fcdata.o(.bss) for flag
    ano_flightctrl.o(i.one_key_roll) refers to ano_attctrl.o(.bss) for rolling_flag
    ano_flightctrl.o(i.one_key_take_off) refers to ano_fcdata.o(.bss) for flag
    ano_flightctrl.o(i.one_key_take_off) refers to ano_flightctrl.o(.data) for one_key_taof_start
    ano_flightctrl.o(i.one_key_take_off_task) refers to ano_flightctrl.o(.data) for one_key_taof_start
    ano_flightctrl.o(i.one_key_take_off_task) refers to ano_fcdata.o(.bss) for flag
    ano_flightdatacal.o(i.Fc_Sensor_Get) refers to drv_icm20602.o(i.Drv_Icm20602_Read) for Drv_Icm20602_Read
    ano_flightdatacal.o(i.Fc_Sensor_Get) refers to drv_ak8975.o(i.Drv_AK8975_Read) for Drv_AK8975_Read
    ano_flightdatacal.o(i.Fc_Sensor_Get) refers to drv_spl06.o(i.Drv_Spl0601_Read) for Drv_Spl0601_Read
    ano_flightdatacal.o(i.Fc_Sensor_Get) refers to ano_fcdata.o(.bss) for flag
    ano_flightdatacal.o(i.Fc_Sensor_Get) refers to ano_flightdatacal.o(.data) for cnt
    ano_flightdatacal.o(i.IMU_Update_Task) refers to ano_imu.o(i.IMU_update) for IMU_update
    ano_flightdatacal.o(i.IMU_Update_Task) refers to ano_fcdata.o(.bss) for flag
    ano_flightdatacal.o(i.IMU_Update_Task) refers to ano_imu.o(.data) for imu_state
    ano_flightdatacal.o(i.IMU_Update_Task) refers to ano_flightdatacal.o(.data) for reset_imu_f
    ano_flightdatacal.o(i.IMU_Update_Task) refers to ano_sensor_basic.o(.bss) for sensor
    ano_flightdatacal.o(i.IMU_Update_Task) refers to ano_magprocess.o(.data) for mag
    ano_flightdatacal.o(i.Mag_Update_Task) refers to drv_ak8975.o(i.Mag_Get) for Mag_Get
    ano_flightdatacal.o(i.Mag_Update_Task) refers to ano_magprocess.o(i.Mag_Data_Deal_Task) for Mag_Data_Deal_Task
    ano_flightdatacal.o(i.Mag_Update_Task) refers to ano_flightdatacal.o(.data) for mag_val
    ano_flightdatacal.o(i.Mag_Update_Task) refers to ano_sensor_basic.o(.bss) for sensor
    ano_flightdatacal.o(i.Mag_Update_Task) refers to ano_imu.o(.data) for imu_data
    ano_flightdatacal.o(i.WCZ_Acc_Get_Task) refers to ano_imu.o(.data) for imu_data
    ano_flightdatacal.o(i.WCZ_Acc_Get_Task) refers to ano_flightdatacal.o(.data) for wcz_acc_use
    ano_flightdatacal.o(i.WCZ_Fus_Task) refers to ano_motioncal.o(i.WCZ_Data_Calc) for WCZ_Data_Calc
    ano_flightdatacal.o(i.WCZ_Fus_Task) refers to ano_fcdata.o(.bss) for flag
    ano_flightdatacal.o(i.WCZ_Fus_Task) refers to ano_flightdatacal.o(.data) for baro_offset_ok
    ano_flightdatacal.o(i.WCZ_Fus_Task) refers to ano_fcdata.o(.data) for switchs
    ano_flightdatacal.o(i.WCZ_Fus_Task) refers to ano_flightctrl.o(.data) for jsdata
    ano_locctrl.o(i.Loc_1level_Ctrl) refers to ano_locctrl.o(i.Loc_1level_PID_Init) for Loc_1level_PID_Init
    ano_locctrl.o(i.Loc_1level_Ctrl) refers to ano_imu.o(i.h2w_2d_trans) for h2w_2d_trans
    ano_locctrl.o(i.Loc_1level_Ctrl) refers to ano_pid.o(i.PID_calculate) for PID_calculate
    ano_locctrl.o(i.Loc_1level_Ctrl) refers to ano_imu.o(i.w2h_2d_trans) for w2h_2d_trans
    ano_locctrl.o(i.Loc_1level_Ctrl) refers to ano_fcdata.o(.data) for switchs
    ano_locctrl.o(i.Loc_1level_Ctrl) refers to ano_locctrl.o(.data) for mode_f
    ano_locctrl.o(i.Loc_1level_Ctrl) refers to ano_flightctrl.o(.bss) for fs
    ano_locctrl.o(i.Loc_1level_Ctrl) refers to ano_locctrl.o(.bss) for loc_ctrl_1
    ano_locctrl.o(i.Loc_1level_Ctrl) refers to ano_imu.o(.data) for imu_data
    ano_locctrl.o(i.Loc_1level_Ctrl) refers to ano_fcdata.o(.bss) for sens_hd_check
    ano_locctrl.o(i.Loc_1level_Ctrl) refers to ano_of.o(.data) for OF_DX2
    ano_locctrl.o(i.Loc_1level_Ctrl) refers to ano_of_decofusion.o(.bss) for of_rdf
    ano_locctrl.o(i.Loc_1level_Ctrl) refers to ano_uwb.o(.bss) for uwb_data
    ano_locctrl.o(i.Loc_1level_Ctrl) refers to ano_math.o(i.length_limit) for length_limit
    ano_locctrl.o(i.Loc_1level_Ctrl) refers to drv_gps.o(.bss) for Gps_information
    ano_locctrl.o(i.Loc_1level_Ctrl) refers to ano_parameter.o(.bss) for Ano_Parame
    ano_locctrl.o(i.Loc_1level_Ctrl) refers to drv_gps.o(.data) for wcx_acc_use
    ano_locctrl.o(i.Loc_1level_PID_Init) refers to memcpya.o(.text) for __aeabi_memcpy4
    ano_locctrl.o(i.Loc_1level_PID_Init) refers to ano_locctrl.o(.data) for mode_f
    ano_locctrl.o(i.Loc_1level_PID_Init) refers to ano_parameter.o(.bss) for Ano_Parame
    ano_locctrl.o(i.Loc_1level_PID_Init) refers to ano_locctrl.o(.bss) for loc_arg_1
    ano_magprocess.o(i.Mag_Cal_Reset) refers to ano_magprocess.o(.data) for max_t
    ano_magprocess.o(i.Mag_Cal_XY) refers to ano_magprocess.o(.data) for max_t
    ano_magprocess.o(i.Mag_Cal_Z) refers to ano_magprocess.o(.data) for max_t
    ano_magprocess.o(i.Mag_Data_Deal_Task) refers to ano_magprocess.o(i.Mag_Cal_XY) for Mag_Cal_XY
    ano_magprocess.o(i.Mag_Data_Deal_Task) refers to ano_magprocess.o(i.Mag_Cal_Reset) for Mag_Cal_Reset
    ano_magprocess.o(i.Mag_Data_Deal_Task) refers to ano_magprocess.o(i.Mag_Cal_Z) for Mag_Cal_Z
    ano_magprocess.o(i.Mag_Data_Deal_Task) refers to ano_fcdata.o(i.data_save) for data_save
    ano_magprocess.o(i.Mag_Data_Deal_Task) refers to ano_math.o(i.my_sqrt) for my_sqrt
    ano_magprocess.o(i.Mag_Data_Deal_Task) refers to ano_fcdata.o(.bss) for save
    ano_magprocess.o(i.Mag_Data_Deal_Task) refers to ano_magprocess.o(.data) for mag
    ano_magprocess.o(i.Mag_Data_Deal_Task) refers to ano_led.o(.bss) for LED_STA
    ano_motorctrl.o(i.Motor_Ctrl_Task) refers to drv_pwmout.o(i.Drv_MotorPWMSet) for Drv_MotorPWMSet
    ano_motorctrl.o(i.Motor_Ctrl_Task) refers to ano_fcdata.o(.bss) for flag
    ano_motorctrl.o(i.Motor_Ctrl_Task) refers to ano_parameter.o(.bss) for Ano_Parame
    ano_motorctrl.o(i.Motor_Ctrl_Task) refers to ano_motorctrl.o(.data) for IDLING
    ano_motorctrl.o(i.Motor_Ctrl_Task) refers to ano_motorctrl.o(.bss) for mc
    ano_power.o(i.Power_UpdateTask) refers to drv_adc.o(i.Drv_Adc0Trigger) for Drv_Adc0Trigger
    ano_power.o(i.Power_UpdateTask) refers to drv_adc.o(.data) for Voltage
    ano_power.o(i.Power_UpdateTask) refers to ano_power.o(.data) for voltage_s16
    ano_power.o(i.Power_UpdateTask) refers to ano_parameter.o(.bss) for Ano_Parame
    ano_power.o(i.Power_UpdateTask) refers to ano_fcdata.o(.bss) for flag
    ano_power.o(i.Power_UpdateTask) refers to ano_led.o(.bss) for LED_STA
    adc.o(i.ADCIntRegister) refers to interrupt.o(i.IntRegister) for IntRegister
    adc.o(i.ADCIntRegister) refers to interrupt.o(i.IntEnable) for IntEnable
    adc.o(i.ADCIntUnregister) refers to interrupt.o(i.IntDisable) for IntDisable
    adc.o(i.ADCIntUnregister) refers to interrupt.o(i.IntUnregister) for IntUnregister
    adc.o(i.ADCSoftwareOversampleConfigure) refers to adc.o(.data) for .data
    adc.o(i.ADCSoftwareOversampleDataGet) refers to adc.o(.data) for .data
    adc.o(i.ADCSoftwareOversampleStepConfigure) refers to adc.o(.data) for .data
    gpio.o(i.GPIOIntRegister) refers to gpio.o(i._GPIOIntNumberGet) for _GPIOIntNumberGet
    gpio.o(i.GPIOIntRegister) refers to interrupt.o(i.IntRegister) for IntRegister
    gpio.o(i.GPIOIntRegister) refers to interrupt.o(i.IntEnable) for IntEnable
    gpio.o(i.GPIOIntRegisterPin) refers to gpio.o(i._GPIOIntNumberGet) for _GPIOIntNumberGet
    gpio.o(i.GPIOIntRegisterPin) refers to interrupt.o(i.IntRegister) for IntRegister
    gpio.o(i.GPIOIntRegisterPin) refers to interrupt.o(i.IntEnable) for IntEnable
    gpio.o(i.GPIOIntUnregister) refers to gpio.o(i._GPIOIntNumberGet) for _GPIOIntNumberGet
    gpio.o(i.GPIOIntUnregister) refers to interrupt.o(i.IntDisable) for IntDisable
    gpio.o(i.GPIOIntUnregister) refers to interrupt.o(i.IntUnregister) for IntUnregister
    gpio.o(i.GPIOIntUnregisterPin) refers to gpio.o(i._GPIOIntNumberGet) for _GPIOIntNumberGet
    gpio.o(i.GPIOIntUnregisterPin) refers to interrupt.o(i.IntDisable) for IntDisable
    gpio.o(i.GPIOIntUnregisterPin) refers to interrupt.o(i.IntUnregister) for IntUnregister
    gpio.o(i.GPIOPinConfigure) refers to gpio.o(.constdata) for .constdata
    gpio.o(i.GPIOPinTypeADC) refers to gpio.o(i.GPIODirModeSet) for GPIODirModeSet
    gpio.o(i.GPIOPinTypeADC) refers to gpio.o(i.GPIOPadConfigSet) for GPIOPadConfigSet
    gpio.o(i.GPIOPinTypeCAN) refers to gpio.o(i.GPIODirModeSet) for GPIODirModeSet
    gpio.o(i.GPIOPinTypeCAN) refers to gpio.o(i.GPIOPadConfigSet) for GPIOPadConfigSet
    gpio.o(i.GPIOPinTypeComparator) refers to gpio.o(i.GPIODirModeSet) for GPIODirModeSet
    gpio.o(i.GPIOPinTypeComparator) refers to gpio.o(i.GPIOPadConfigSet) for GPIOPadConfigSet
    gpio.o(i.GPIOPinTypeComparatorOutput) refers to gpio.o(i.GPIODirModeSet) for GPIODirModeSet
    gpio.o(i.GPIOPinTypeComparatorOutput) refers to gpio.o(i.GPIOPadConfigSet) for GPIOPadConfigSet
    gpio.o(i.GPIOPinTypeDIVSCLK) refers to gpio.o(i.GPIODirModeSet) for GPIODirModeSet
    gpio.o(i.GPIOPinTypeDIVSCLK) refers to gpio.o(i.GPIOPadConfigSet) for GPIOPadConfigSet
    gpio.o(i.GPIOPinTypeEPI) refers to gpio.o(i.GPIODirModeSet) for GPIODirModeSet
    gpio.o(i.GPIOPinTypeEPI) refers to gpio.o(i.GPIOPadConfigSet) for GPIOPadConfigSet
    gpio.o(i.GPIOPinTypeEthernetLED) refers to gpio.o(i.GPIODirModeSet) for GPIODirModeSet
    gpio.o(i.GPIOPinTypeEthernetLED) refers to gpio.o(i.GPIOPadConfigSet) for GPIOPadConfigSet
    gpio.o(i.GPIOPinTypeEthernetMII) refers to gpio.o(i.GPIODirModeSet) for GPIODirModeSet
    gpio.o(i.GPIOPinTypeEthernetMII) refers to gpio.o(i.GPIOPadConfigSet) for GPIOPadConfigSet
    gpio.o(i.GPIOPinTypeGPIOInput) refers to gpio.o(i.GPIODirModeSet) for GPIODirModeSet
    gpio.o(i.GPIOPinTypeGPIOInput) refers to gpio.o(i.GPIOPadConfigSet) for GPIOPadConfigSet
    gpio.o(i.GPIOPinTypeGPIOOutput) refers to gpio.o(i.GPIOPadConfigSet) for GPIOPadConfigSet
    gpio.o(i.GPIOPinTypeGPIOOutput) refers to gpio.o(i.GPIODirModeSet) for GPIODirModeSet
    gpio.o(i.GPIOPinTypeGPIOOutputOD) refers to gpio.o(i.GPIOPadConfigSet) for GPIOPadConfigSet
    gpio.o(i.GPIOPinTypeGPIOOutputOD) refers to gpio.o(i.GPIODirModeSet) for GPIODirModeSet
    gpio.o(i.GPIOPinTypeHibernateRTCCLK) refers to gpio.o(i.GPIODirModeSet) for GPIODirModeSet
    gpio.o(i.GPIOPinTypeHibernateRTCCLK) refers to gpio.o(i.GPIOPadConfigSet) for GPIOPadConfigSet
    gpio.o(i.GPIOPinTypeI2C) refers to gpio.o(i.GPIODirModeSet) for GPIODirModeSet
    gpio.o(i.GPIOPinTypeI2C) refers to gpio.o(i.GPIOPadConfigSet) for GPIOPadConfigSet
    gpio.o(i.GPIOPinTypeI2CSCL) refers to gpio.o(i.GPIODirModeSet) for GPIODirModeSet
    gpio.o(i.GPIOPinTypeI2CSCL) refers to gpio.o(i.GPIOPadConfigSet) for GPIOPadConfigSet
    gpio.o(i.GPIOPinTypeLCD) refers to gpio.o(i.GPIODirModeSet) for GPIODirModeSet
    gpio.o(i.GPIOPinTypeLCD) refers to gpio.o(i.GPIOPadConfigSet) for GPIOPadConfigSet
    gpio.o(i.GPIOPinTypeOneWire) refers to gpio.o(i.GPIODirModeSet) for GPIODirModeSet
    gpio.o(i.GPIOPinTypeOneWire) refers to gpio.o(i.GPIOPadConfigSet) for GPIOPadConfigSet
    gpio.o(i.GPIOPinTypePWM) refers to gpio.o(i.GPIODirModeSet) for GPIODirModeSet
    gpio.o(i.GPIOPinTypePWM) refers to gpio.o(i.GPIOPadConfigSet) for GPIOPadConfigSet
    gpio.o(i.GPIOPinTypeQEI) refers to gpio.o(i.GPIODirModeSet) for GPIODirModeSet
    gpio.o(i.GPIOPinTypeQEI) refers to gpio.o(i.GPIOPadConfigSet) for GPIOPadConfigSet
    gpio.o(i.GPIOPinTypeSSI) refers to gpio.o(i.GPIODirModeSet) for GPIODirModeSet
    gpio.o(i.GPIOPinTypeSSI) refers to gpio.o(i.GPIOPadConfigSet) for GPIOPadConfigSet
    gpio.o(i.GPIOPinTypeTimer) refers to gpio.o(i.GPIODirModeSet) for GPIODirModeSet
    gpio.o(i.GPIOPinTypeTimer) refers to gpio.o(i.GPIOPadConfigSet) for GPIOPadConfigSet
    gpio.o(i.GPIOPinTypeTrace) refers to gpio.o(i.GPIODirModeSet) for GPIODirModeSet
    gpio.o(i.GPIOPinTypeTrace) refers to gpio.o(i.GPIOPadConfigSet) for GPIOPadConfigSet
    gpio.o(i.GPIOPinTypeUART) refers to gpio.o(i.GPIODirModeSet) for GPIODirModeSet
    gpio.o(i.GPIOPinTypeUART) refers to gpio.o(i.GPIOPadConfigSet) for GPIOPadConfigSet
    gpio.o(i.GPIOPinTypeUSBAnalog) refers to gpio.o(i.GPIODirModeSet) for GPIODirModeSet
    gpio.o(i.GPIOPinTypeUSBAnalog) refers to gpio.o(i.GPIOPadConfigSet) for GPIOPadConfigSet
    gpio.o(i.GPIOPinTypeUSBDigital) refers to gpio.o(i.GPIODirModeSet) for GPIODirModeSet
    gpio.o(i.GPIOPinTypeUSBDigital) refers to gpio.o(i.GPIOPadConfigSet) for GPIOPadConfigSet
    gpio.o(i.GPIOPinTypeWakeHigh) refers to gpio.o(i.GPIODirModeSet) for GPIODirModeSet
    gpio.o(i.GPIOPinTypeWakeHigh) refers to gpio.o(i.GPIOPadConfigSet) for GPIOPadConfigSet
    gpio.o(i.GPIOPinTypeWakeLow) refers to gpio.o(i.GPIODirModeSet) for GPIODirModeSet
    gpio.o(i.GPIOPinTypeWakeLow) refers to gpio.o(i.GPIOPadConfigSet) for GPIOPadConfigSet
    gpio.o(i._GPIOIntNumberGet) refers to gpio.o(.constdata) for .constdata
    sysctl.o(i.SysCtlClockFreqSet) refers to sysctl.o(.constdata) for .constdata
    sysctl.o(i.SysCtlClockGet) refers to sysctl.o(.constdata) for .constdata
    sysctl.o(i.SysCtlClockSet) refers to sysctl.o(.emb_text) for SysCtlDelay
    sysctl.o(i.SysCtlDeepSleep) refers to cpu.o(.emb_text) for CPUwfi
    sysctl.o(i.SysCtlIntRegister) refers to interrupt.o(i.IntRegister) for IntRegister
    sysctl.o(i.SysCtlIntRegister) refers to interrupt.o(i.IntEnable) for IntEnable
    sysctl.o(i.SysCtlIntUnregister) refers to interrupt.o(i.IntDisable) for IntDisable
    sysctl.o(i.SysCtlIntUnregister) refers to interrupt.o(i.IntUnregister) for IntUnregister
    sysctl.o(i.SysCtlSleep) refers to cpu.o(.emb_text) for CPUwfi
    sysctl.o(i.SysCtlVCOGet) refers to sysctl.o(.constdata) for .constdata
    timer.o(i.TimerIntRegister) refers to interrupt.o(i.IntRegister) for IntRegister
    timer.o(i.TimerIntRegister) refers to interrupt.o(i.IntEnable) for IntEnable
    timer.o(i.TimerIntRegister) refers to timer.o(.constdata) for .constdata
    timer.o(i.TimerIntUnregister) refers to interrupt.o(i.IntDisable) for IntDisable
    timer.o(i.TimerIntUnregister) refers to interrupt.o(i.IntUnregister) for IntUnregister
    timer.o(i.TimerIntUnregister) refers to timer.o(.constdata) for .constdata
    uart.o(i.UARTIntRegister) refers to interrupt.o(i.IntRegister) for IntRegister
    uart.o(i.UARTIntRegister) refers to interrupt.o(i.IntEnable) for IntEnable
    uart.o(i.UARTIntRegister) refers to uart.o(.constdata) for .constdata
    uart.o(i.UARTIntUnregister) refers to interrupt.o(i.IntDisable) for IntDisable
    uart.o(i.UARTIntUnregister) refers to interrupt.o(i.IntUnregister) for IntUnregister
    uart.o(i.UARTIntUnregister) refers to uart.o(.constdata) for .constdata
    usb.o(i.USBIntRegister) refers to interrupt.o(i.IntRegister) for IntRegister
    usb.o(i.USBIntRegister) refers to interrupt.o(i.IntEnable) for IntEnable
    usb.o(i.USBIntUnregister) refers to interrupt.o(i.IntDisable) for IntDisable
    usb.o(i.USBIntUnregister) refers to interrupt.o(i.IntUnregister) for IntUnregister
    usbbuffer.o(i.ScheduleNextTransmission) refers to usbringbuf.o(i.USBRingBufContigUsed) for USBRingBufContigUsed
    usbbuffer.o(i.ScheduleNextTransmission) refers to usbringbuf.o(i.USBRingBufUsed) for USBRingBufUsed
    usbbuffer.o(i.USBBufferDataAvailable) refers to usbringbuf.o(i.USBRingBufUsed) for USBRingBufUsed
    usbbuffer.o(i.USBBufferDataRemoved) refers to usbringbuf.o(i.USBRingBufAdvanceRead) for USBRingBufAdvanceRead
    usbbuffer.o(i.USBBufferDataWritten) refers to usbringbuf.o(i.USBRingBufAdvanceWrite) for USBRingBufAdvanceWrite
    usbbuffer.o(i.USBBufferDataWritten) refers to usbbuffer.o(i.ScheduleNextTransmission) for ScheduleNextTransmission
    usbbuffer.o(i.USBBufferEventCallback) refers to usbringbuf.o(i.USBRingBufAdvanceWrite) for USBRingBufAdvanceWrite
    usbbuffer.o(i.USBBufferEventCallback) refers to usbringbuf.o(i.USBRingBufFree) for USBRingBufFree
    usbbuffer.o(i.USBBufferEventCallback) refers to usbringbuf.o(i.USBRingBufWrite) for USBRingBufWrite
    usbbuffer.o(i.USBBufferEventCallback) refers to usbringbuf.o(i.USBRingBufContigFree) for USBRingBufContigFree
    usbbuffer.o(i.USBBufferEventCallback) refers to usbringbuf.o(i.USBRingBufUsed) for USBRingBufUsed
    usbbuffer.o(i.USBBufferEventCallback) refers to usbringbuf.o(i.USBRingBufAdvanceRead) for USBRingBufAdvanceRead
    usbbuffer.o(i.USBBufferEventCallback) refers to usbbuffer.o(i.ScheduleNextTransmission) for ScheduleNextTransmission
    usbbuffer.o(i.USBBufferFlush) refers to usbringbuf.o(i.USBRingBufFlush) for USBRingBufFlush
    usbbuffer.o(i.USBBufferInit) refers to usbringbuf.o(i.USBRingBufInit) for USBRingBufInit
    usbbuffer.o(i.USBBufferRead) refers to usbringbuf.o(i.USBRingBufUsed) for USBRingBufUsed
    usbbuffer.o(i.USBBufferRead) refers to usbringbuf.o(i.USBRingBufRead) for USBRingBufRead
    usbbuffer.o(i.USBBufferSpaceAvailable) refers to usbringbuf.o(i.USBRingBufFree) for USBRingBufFree
    usbbuffer.o(i.USBBufferWrite) refers to usbringbuf.o(i.USBRingBufFree) for USBRingBufFree
    usbbuffer.o(i.USBBufferWrite) refers to usbringbuf.o(i.USBRingBufWrite) for USBRingBufWrite
    usbbuffer.o(i.USBBufferWrite) refers to usbbuffer.o(i.ScheduleNextTransmission) for ScheduleNextTransmission
    usbdcdc.o(i.CDCTickHandler) refers to usbdcdc.o(i.SendBreak) for SendBreak
    usbdcdc.o(i.CDCTickHandler) refers to usb.o(i.USBEndpointDataAvail) for USBEndpointDataAvail
    usbdcdc.o(i.HandleEP0Data) refers to usbdenum.o(i.USBDCDStallEP0) for USBDCDStallEP0
    usbdcdc.o(i.HandleEndpoints) refers to usb.o(i.USBEndpointStatus) for USBEndpointStatus
    usbdcdc.o(i.HandleEndpoints) refers to usb.o(i.USBDevEndpointStatusClear) for USBDevEndpointStatusClear
    usbdcdc.o(i.HandleEndpoints) refers to usbdcdc.o(i.SendSerialState) for SendSerialState
    usbdcdc.o(i.HandleEndpoints) refers to usbdcdc.o(i.ProcessDataFromHost) for ProcessDataFromHost
    usbdcdc.o(i.HandleEndpoints) refers to usbdcdc.o(i.ProcessDataToHost) for ProcessDataToHost
    usbdcdc.o(i.HandleRequests) refers to usbdenum.o(i.USBDCDStallEP0) for USBDCDStallEP0
    usbdcdc.o(i.HandleRequests) refers to usbdenum.o(i.USBDCDRequestDataEP0) for USBDCDRequestDataEP0
    usbdcdc.o(i.HandleRequests) refers to usb.o(i.USBDevEndpointDataAck) for USBDevEndpointDataAck
    usbdcdc.o(i.HandleRequests) refers to usbdenum.o(i.USBDCDSendDataEP0) for USBDCDSendDataEP0
    usbdcdc.o(i.HandleRequests) refers to usbdcdc.o(i.SendBreak) for SendBreak
    usbdcdc.o(i.ProcessDataFromHost) refers to usb.o(i.USBEndpointStatus) for USBEndpointStatus
    usbdcdc.o(i.ProcessDataFromHost) refers to usb.o(i.USBDevEndpointStatusClear) for USBDevEndpointStatusClear
    usbdcdc.o(i.ProcessDataFromHost) refers to usb.o(i.USBEndpointDataAvail) for USBEndpointDataAvail
    usbdcdc.o(i.ProcessDataToHost) refers to usb.o(i.USBEndpointStatus) for USBEndpointStatus
    usbdcdc.o(i.ProcessDataToHost) refers to usb.o(i.USBDevEndpointStatusClear) for USBDevEndpointStatusClear
    usbdcdc.o(i.ProcessDataToHost) refers to usb.o(i.USBEndpointDataSend) for USBEndpointDataSend
    usbdcdc.o(i.ProcessDataToHost) refers to usbdcdc.o(.data) for .data
    usbdcdc.o(i.ProcessNotificationToHost) refers to usb.o(i.USBEndpointStatus) for USBEndpointStatus
    usbdcdc.o(i.ProcessNotificationToHost) refers to usb.o(i.USBDevEndpointStatusClear) for USBDevEndpointStatusClear
    usbdcdc.o(i.ProcessNotificationToHost) refers to usbdcdc.o(i.SendSerialState) for SendSerialState
    usbdcdc.o(i.SendSerialState) refers to usb.o(i.USBEndpointDataPut) for USBEndpointDataPut
    usbdcdc.o(i.SendSerialState) refers to usb.o(i.USBEndpointDataSend) for USBEndpointDataSend
    usbdcdc.o(i.USBDCDCCompositeInit) refers to usbdenum.o(i.USBDCDFeatureGet) for USBDCDFeatureGet
    usbdcdc.o(i.USBDCDCCompositeInit) refers to usbdenum.o(i.USBDCDDeviceInfoInit) for USBDCDDeviceInfoInit
    usbdcdc.o(i.USBDCDCCompositeInit) refers to usbtick.o(i.InternalUSBTickInit) for InternalUSBTickInit
    usbdcdc.o(i.USBDCDCCompositeInit) refers to usbtick.o(i.InternalUSBRegisterTickHandler) for InternalUSBRegisterTickHandler
    usbdcdc.o(i.USBDCDCCompositeInit) refers to usbdcdc.o(.constdata) for .constdata
    usbdcdc.o(i.USBDCDCCompositeInit) refers to usbdcdc.o(.data) for .data
    usbdcdc.o(i.USBDCDCCompositeInit) refers to usbdcdc.o(i.CDCTickHandler) for CDCTickHandler
    usbdcdc.o(i.USBDCDCInit) refers to usbdcdc.o(i.USBDCDCCompositeInit) for USBDCDCCompositeInit
    usbdcdc.o(i.USBDCDCInit) refers to usbdenum.o(i.USBDCDInit) for USBDCDInit
    usbdcdc.o(i.USBDCDCInit) refers to usbdcdc.o(.data) for .data
    usbdcdc.o(i.USBDCDCInit) refers to usbdcdc.o(.constdata) for .constdata
    usbdcdc.o(i.USBDCDCPacketRead) refers to usb.o(i.USBEndpointStatus) for USBEndpointStatus
    usbdcdc.o(i.USBDCDCPacketRead) refers to usb.o(i.USBEndpointDataAvail) for USBEndpointDataAvail
    usbdcdc.o(i.USBDCDCPacketRead) refers to usb.o(i.USBEndpointDataGet) for USBEndpointDataGet
    usbdcdc.o(i.USBDCDCPacketRead) refers to usb.o(i.USBDevEndpointStatusClear) for USBDevEndpointStatusClear
    usbdcdc.o(i.USBDCDCPacketRead) refers to usb.o(i.USBDevEndpointDataAck) for USBDevEndpointDataAck
    usbdcdc.o(i.USBDCDCPacketWrite) refers to usb.o(i.USBEndpointDataPut) for USBEndpointDataPut
    usbdcdc.o(i.USBDCDCPacketWrite) refers to usb.o(i.USBEndpointDataSend) for USBEndpointDataSend
    usbdcdc.o(i.USBDCDCPacketWrite) refers to usbdcdc.o(.data) for .data
    usbdcdc.o(i.USBDCDCPowerStatusSet) refers to usbdenum.o(i.USBDCDPowerStatusSet) for USBDCDPowerStatusSet
    usbdcdc.o(i.USBDCDCRemoteWakeupRequest) refers to usbdenum.o(i.USBDCDRemoteWakeupRequest) for USBDCDRemoteWakeupRequest
    usbdcdc.o(i.USBDCDCRxPacketAvailable) refers to usb.o(i.USBEndpointStatus) for USBEndpointStatus
    usbdcdc.o(i.USBDCDCRxPacketAvailable) refers to usb.o(i.USBEndpointDataAvail) for USBEndpointDataAvail
    usbdcdc.o(i.USBDCDCSerialStateChange) refers to usbdcdc.o(i.SendSerialState) for SendSerialState
    usbdcdc.o(i.USBDCDCTerm) refers to usbdenum.o(i.USBDCDTerm) for USBDCDTerm
    usbdcdc.o(i.USBDCDCTxPacketAvailable) refers to usbdcdc.o(.data) for .data
    usbdcdc.o(.constdata) refers to usbdcdc.o(.data) for g_pui8CDCSerDescriptor
    usbdcdc.o(.constdata) refers to usbdcdc.o(.data) for g_pui8IADSerDescriptor
    usbdcdc.o(.constdata) refers to usbdcdc.o(.constdata) for g_pui8CDCSerCommInterface
    usbdcdc.o(.constdata) refers to usbdcdc.o(.constdata) for g_pui8CDCSerDataInterface
    usbdcdc.o(.constdata) refers to usbdcdc.o(.constdata) for g_pui8CDCSerDataInterfaceHS
    usbdcdc.o(.constdata) refers to usbdcdc.o(.data) for g_psCDCSerSections
    usbdcdc.o(.constdata) refers to usbdcdc.o(.data) for g_psCDCSerSectionsHS
    usbdcdc.o(.constdata) refers to usbdcdc.o(.data) for g_psCDCCompSerSections
    usbdcdc.o(.constdata) refers to usbdcdc.o(.data) for g_psCDCCompSerSectionsHS
    usbdcdc.o(.constdata) refers to usbdcdc.o(.constdata) for g_sCDCSerConfigHeader
    usbdcdc.o(.constdata) refers to usbdcdc.o(.constdata) for g_sCDCSerConfigHeaderHS
    usbdcdc.o(.constdata) refers to usbdcdc.o(.constdata) for g_sCDCCompSerConfigHeader
    usbdcdc.o(.constdata) refers to usbdcdc.o(.constdata) for g_sCDCCompSerConfigHeaderHS
    usbdcdc.o(.constdata) refers to usbdcdc.o(i.HandleRequests) for HandleRequests
    usbdcdc.o(.constdata) refers to usbdcdc.o(i.HandleConfigChange) for HandleConfigChange
    usbdcdc.o(.constdata) refers to usbdcdc.o(i.HandleEP0Data) for HandleEP0Data
    usbdcdc.o(.constdata) refers to usbdcdc.o(i.HandleSuspend) for HandleSuspend
    usbdcdc.o(.constdata) refers to usbdcdc.o(i.HandleResume) for HandleResume
    usbdcdc.o(.constdata) refers to usbdcdc.o(i.HandleDisconnect) for HandleDisconnect
    usbdcdc.o(.constdata) refers to usbdcdc.o(i.HandleEndpoints) for HandleEndpoints
    usbdcdc.o(.constdata) refers to usbdcdc.o(i.HandleDevice) for HandleDevice
    usbdcdc.o(.data) refers to usbdcdc.o(.constdata) for g_sCDCSerConfigSection
    usbdcdc.o(.data) refers to usbdcdc.o(.constdata) for g_sCDCSerCommInterfaceSection
    usbdcdc.o(.data) refers to usbdcdc.o(.constdata) for g_sCDCSerDataInterfaceSection
    usbdcdc.o(.data) refers to usbdcdc.o(.constdata) for g_sCDCSerConfigSection
    usbdcdc.o(.data) refers to usbdcdc.o(.constdata) for g_sCDCSerCommInterfaceSection
    usbdcdc.o(.data) refers to usbdcdc.o(.constdata) for g_sCDCSerDataInterfaceSectionHS
    usbdcdc.o(.data) refers to usbdcdc.o(.constdata) for g_sCDCSerConfigSection
    usbdcdc.o(.data) refers to usbdcdc.o(.constdata) for g_sIADSerConfigSection
    usbdcdc.o(.data) refers to usbdcdc.o(.constdata) for g_sCDCSerCommInterfaceSection
    usbdcdc.o(.data) refers to usbdcdc.o(.constdata) for g_sCDCSerDataInterfaceSection
    usbdcdc.o(.data) refers to usbdcdc.o(.constdata) for g_sCDCSerConfigSection
    usbdcdc.o(.data) refers to usbdcdc.o(.constdata) for g_sIADSerConfigSection
    usbdcdc.o(.data) refers to usbdcdc.o(.constdata) for g_sCDCSerCommInterfaceSection
    usbdcdc.o(.data) refers to usbdcdc.o(.constdata) for g_sCDCSerDataInterfaceSectionHS
    usbdhandler.o(i.USB0DeviceIntHandler) refers to usb.o(i.USBIntStatusControl) for USBIntStatusControl
    usbdhandler.o(i.USB0DeviceIntHandler) refers to usbdenum.o(i.USBDeviceIntHandlerInternal) for USBDeviceIntHandlerInternal
    usbmode.o(i.OTGDeviceDisconnect) refers to usbmode.o(i.USBOTGSetMode) for USBOTGSetMode
    usbmode.o(i.OTGDeviceDisconnect) refers to usbmode.o(.data) for .data
    usbmode.o(i.USB0DualModeIntHandler) refers to usb.o(i.USBIntStatusControl) for USBIntStatusControl
    usbmode.o(i.USB0DualModeIntHandler) refers to usbhostenum.o(i.USBHostIntHandlerInternal) for USBHostIntHandlerInternal
    usbmode.o(i.USB0DualModeIntHandler) refers to usbdenum.o(i.USBDeviceIntHandlerInternal) for USBDeviceIntHandlerInternal
    usbmode.o(i.USB0DualModeIntHandler) refers to usbmode.o(.data) for .data
    usbmode.o(i.USB0OTGModeIntHandler) refers to usb.o(i.USBIntStatusControl) for USBIntStatusControl
    usbmode.o(i.USB0OTGModeIntHandler) refers to usbhostenum.o(i.USBHCDPowerAutomatic) for USBHCDPowerAutomatic
    usbmode.o(i.USB0OTGModeIntHandler) refers to usb.o(i.USBModeGet) for USBModeGet
    usbmode.o(i.USB0OTGModeIntHandler) refers to usbmode.o(i.USBOTGSetMode) for USBOTGSetMode
    usbmode.o(i.USB0OTGModeIntHandler) refers to usbhostenum.o(i.USBHostIntHandlerInternal) for USBHostIntHandlerInternal
    usbmode.o(i.USB0OTGModeIntHandler) refers to usbhostenum.o(i.InternalUSBHCDSendEvent) for InternalUSBHCDSendEvent
    usbmode.o(i.USB0OTGModeIntHandler) refers to usbdenum.o(i.USBDeviceIntHandlerInternal) for USBDeviceIntHandlerInternal
    usbmode.o(i.USB0OTGModeIntHandler) refers to usbmode.o(.data) for .data
    usbmode.o(i.USBDualModeInit) refers to usb.o(i.USBHostEndpointConfig) for USBHostEndpointConfig
    usbmode.o(i.USBDualModeInit) refers to usb.o(i.USBIntEnableControl) for USBIntEnableControl
    usbmode.o(i.USBDualModeInit) refers to usb.o(i.USBIntEnableEndpoint) for USBIntEnableEndpoint
    usbmode.o(i.USBDualModeInit) refers to usbtick.o(i.InternalUSBTickInit) for InternalUSBTickInit
    usbmode.o(i.USBDualModeInit) refers to interrupt.o(i.IntEnable) for IntEnable
    usbmode.o(i.USBDualModeInit) refers to usb.o(i.USBOTGSessionRequest) for USBOTGSessionRequest
    usbmode.o(i.USBDualModeInit) refers to usbhostenum.o(i.USBHCDPowerConfigGet) for USBHCDPowerConfigGet
    usbmode.o(i.USBDualModeInit) refers to usb.o(i.USBHostPwrConfig) for USBHostPwrConfig
    usbmode.o(i.USBDualModeInit) refers to usbhostenum.o(i.USBHCDPowerAutomatic) for USBHCDPowerAutomatic
    usbmode.o(i.USBDualModeInit) refers to usb.o(i.USBHostPwrEnable) for USBHostPwrEnable
    usbmode.o(i.USBDualModeInit) refers to usbdenum.o(.bss) for g_psDCDInst
    usbmode.o(i.USBDualModeTerm) refers to interrupt.o(i.IntDisable) for IntDisable
    usbmode.o(i.USBDualModeTerm) refers to usb.o(i.USBIntDisableControl) for USBIntDisableControl
    usbmode.o(i.USBDualModeTerm) refers to usb.o(i.USBIntDisableEndpoint) for USBIntDisableEndpoint
    usbmode.o(i.USBDualModeTerm) refers to usbdenum.o(.bss) for g_psDCDInst
    usbmode.o(i.USBOTGFeatureSet) refers to usbdenum.o(i.USBDCDFeatureSet) for USBDCDFeatureSet
    usbmode.o(i.USBOTGFeatureSet) refers to usbhostenum.o(i.USBHCDFeatureSet) for USBHCDFeatureSet
    usbmode.o(i.USBOTGMain) refers to usb.o(i.USBOTGSessionRequest) for USBOTGSessionRequest
    usbmode.o(i.USBOTGMain) refers to usbmode.o(i.USBOTGSetMode) for USBOTGSetMode
    usbmode.o(i.USBOTGMain) refers to usbhostenum.o(i.USBHCDPowerAutomatic) for USBHCDPowerAutomatic
    usbmode.o(i.USBOTGMain) refers to usbhostenum.o(i.InternalUSBHCDSendEvent) for InternalUSBHCDSendEvent
    usbmode.o(i.USBOTGMain) refers to usbhostenum.o(i.USBHCDMain) for USBHCDMain
    usbmode.o(i.USBOTGMain) refers to usbmode.o(.data) for .data
    usbmode.o(i.USBOTGModeInit) refers to sysctl.o(i.SysCtlPeripheralEnable) for SysCtlPeripheralEnable
    usbmode.o(i.USBOTGModeInit) refers to sysctl.o(i.SysCtlUSBPLLEnable) for SysCtlUSBPLLEnable
    usbmode.o(i.USBOTGModeInit) refers to usbhostenum.o(i.USBHCDInit) for USBHCDInit
    usbmode.o(i.USBOTGModeInit) refers to usb.o(i.USBHostEndpointConfig) for USBHostEndpointConfig
    usbmode.o(i.USBOTGModeInit) refers to usb.o(i.USBIntEnableControl) for USBIntEnableControl
    usbmode.o(i.USBOTGModeInit) refers to usb.o(i.USBOTGMode) for USBOTGMode
    usbmode.o(i.USBOTGModeInit) refers to usb.o(i.USBIntEnableEndpoint) for USBIntEnableEndpoint
    usbmode.o(i.USBOTGModeInit) refers to usbhostenum.o(i.USBHCDPowerConfigGet) for USBHCDPowerConfigGet
    usbmode.o(i.USBOTGModeInit) refers to usbhostenum.o(i.USBHCDPowerConfigSet) for USBHCDPowerConfigSet
    usbmode.o(i.USBOTGModeInit) refers to usbhostenum.o(i.USBHCDPowerAutomatic) for USBHCDPowerAutomatic
    usbmode.o(i.USBOTGModeInit) refers to usb.o(i.USBHostPwrEnable) for USBHostPwrEnable
    usbmode.o(i.USBOTGModeInit) refers to interrupt.o(i.IntEnable) for IntEnable
    usbmode.o(i.USBOTGModeInit) refers to usbmode.o(.data) for .data
    usbmode.o(i.USBOTGModeTerm) refers to interrupt.o(i.IntDisable) for IntDisable
    usbmode.o(i.USBOTGModeTerm) refers to usb.o(i.USBIntDisableControl) for USBIntDisableControl
    usbmode.o(i.USBOTGModeTerm) refers to usb.o(i.USBIntDisableEndpoint) for USBIntDisableEndpoint
    usbmode.o(i.USBOTGModeTerm) refers to usbmode.o(i.USBOTGSetMode) for USBOTGSetMode
    usbmode.o(i.USBOTGModeTerm) refers to usbdenum.o(.bss) for g_psDCDInst
    usbmode.o(i.USBOTGPollRate) refers to usbmode.o(.data) for .data
    usbmode.o(i.USBOTGSetMode) refers to usb.o(i.USBHostSuspend) for USBHostSuspend
    usbmode.o(i.USBOTGSetMode) refers to usb.o(i.USBOTGSessionRequest) for USBOTGSessionRequest
    usbmode.o(i.USBOTGSetMode) refers to usbhostenum.o(i.USBHCDPowerAutomatic) for USBHCDPowerAutomatic
    usbmode.o(i.USBOTGSetMode) refers to usbhostenum.o(i.InternalUSBHCDSendEvent) for InternalUSBHCDSendEvent
    usbmode.o(i.USBOTGSetMode) refers to usbmode.o(.data) for .data
    usbmode.o(i.USBStackModeSet) refers to usbmode.o(.data) for .data
    interrupt.o(i.IntDisable) refers to interrupt.o(.constdata) for .constdata
    interrupt.o(i.IntEnable) refers to interrupt.o(.constdata) for .constdata
    interrupt.o(i.IntIsEnabled) refers to interrupt.o(.constdata) for .constdata
    interrupt.o(i.IntMasterDisable) refers to cpu.o(.emb_text) for CPUcpsid
    interrupt.o(i.IntMasterEnable) refers to cpu.o(.emb_text) for CPUcpsie
    interrupt.o(i.IntPendClear) refers to interrupt.o(.constdata) for .constdata
    interrupt.o(i.IntPendSet) refers to interrupt.o(.constdata) for .constdata
    interrupt.o(i.IntPriorityGet) refers to interrupt.o(.constdata) for .constdata
    interrupt.o(i.IntPriorityGroupingGet) refers to interrupt.o(.constdata) for .constdata
    interrupt.o(i.IntPriorityGroupingSet) refers to interrupt.o(.constdata) for .constdata
    interrupt.o(i.IntPriorityMaskGet) refers to cpu.o(.emb_text) for CPUbasepriGet
    interrupt.o(i.IntPriorityMaskSet) refers to cpu.o(.emb_text) for CPUbasepriSet
    interrupt.o(i.IntPrioritySet) refers to interrupt.o(.constdata) for .constdata
    interrupt.o(i.IntRegister) refers to interrupt.o(vtable) for vtable
    interrupt.o(i.IntUnregister) refers to interrupt.o(i._IntDefaultHandler) for _IntDefaultHandler
    interrupt.o(i.IntUnregister) refers to interrupt.o(vtable) for vtable
    usbdenum.o(i.USBDCDDeviceInfoInit) refers to usbdenum.o(.bss) for .bss
    usbdenum.o(i.USBDCDFeatureGet) refers to usbdenum.o(.data) for .data
    usbdenum.o(i.USBDCDFeatureSet) refers to usbdenum.o(.bss) for .bss
    usbdenum.o(i.USBDCDFeatureSet) refers to usbdenum.o(.data) for .data
    usbdenum.o(i.USBDCDInit) refers to sysctl.o(i.SysCtlPeripheralReset) for SysCtlPeripheralReset
    usbdenum.o(i.USBDCDInit) refers to sysctl.o(i.SysCtlPeripheralEnable) for SysCtlPeripheralEnable
    usbdenum.o(i.USBDCDInit) refers to sysctl.o(i.SysCtlUSBPLLEnable) for SysCtlUSBPLLEnable
    usbdenum.o(i.USBDCDInit) refers to usb.o(i.USBClockEnable) for USBClockEnable
    usbdenum.o(i.USBDCDInit) refers to usb.o(i.USBULPIEnable) for USBULPIEnable
    usbdenum.o(i.USBDCDInit) refers to usbulpi.o(i.ULPIConfigSet) for ULPIConfigSet
    usbdenum.o(i.USBDCDInit) refers to usb.o(i.USBULPIDisable) for USBULPIDisable
    usbdenum.o(i.USBDCDInit) refers to usb.o(i.USBOTGMode) for USBOTGMode
    usbdenum.o(i.USBDCDInit) refers to usb.o(i.USBDevMode) for USBDevMode
    usbdenum.o(i.USBDCDInit) refers to usb.o(i.USBDevLPMConfig) for USBDevLPMConfig
    usbdenum.o(i.USBDCDInit) refers to usb.o(i.USBLPMIntEnable) for USBLPMIntEnable
    usbdenum.o(i.USBDCDInit) refers to usb.o(i.USBDevLPMEnable) for USBDevLPMEnable
    usbdenum.o(i.USBDCDInit) refers to usb.o(i.USBDevLPMDisable) for USBDevLPMDisable
    usbdenum.o(i.USBDCDInit) refers to usbdma.o(i.USBLibDMAInit) for USBLibDMAInit
    usbdenum.o(i.USBDCDInit) refers to usbtick.o(i.InternalUSBTickInit) for InternalUSBTickInit
    usbdenum.o(i.USBDCDInit) refers to usb.o(i.USBIntStatusControl) for USBIntStatusControl
    usbdenum.o(i.USBDCDInit) refers to usb.o(i.USBIntStatusEndpoint) for USBIntStatusEndpoint
    usbdenum.o(i.USBDCDInit) refers to usb.o(i.USBIntEnableControl) for USBIntEnableControl
    usbdenum.o(i.USBDCDInit) refers to usb.o(i.USBIntEnableEndpoint) for USBIntEnableEndpoint
    usbdenum.o(i.USBDCDInit) refers to usb.o(i.USBDevConnect) for USBDevConnect
    usbdenum.o(i.USBDCDInit) refers to interrupt.o(i.IntEnable) for IntEnable
    usbdenum.o(i.USBDCDInit) refers to usbdenum.o(.data) for .data
    usbdenum.o(i.USBDCDInit) refers to usbdenum.o(.bss) for .bss
    usbdenum.o(i.USBDCDInit) refers to usbmode.o(.data) for g_iUSBMode
    usbdenum.o(i.USBDCDPowerStatusSet) refers to usbdenum.o(.bss) for .bss
    usbdenum.o(i.USBDCDRemoteWakeLPM) refers to usb.o(i.USBLPMRemoteWakeEnabled) for USBLPMRemoteWakeEnabled
    usbdenum.o(i.USBDCDRemoteWakeLPM) refers to usb.o(i.USBDevLPMRemoteWake) for USBDevLPMRemoteWake
    usbdenum.o(i.USBDCDRemoteWakeupRequest) refers to usb.o(i.USBHostResume) for USBHostResume
    usbdenum.o(i.USBDCDRemoteWakeupRequest) refers to usbdenum.o(.bss) for .bss
    usbdenum.o(i.USBDCDRequestDataEP0) refers to usbdenum.o(.bss) for .bss
    usbdenum.o(i.USBDCDSendDataEP0) refers to usbdenum.o(i.USBDEP0StateTx) for USBDEP0StateTx
    usbdenum.o(i.USBDCDSendDataEP0) refers to usbdenum.o(.bss) for .bss
    usbdenum.o(i.USBDCDSetDefaultConfiguration) refers to usbdenum.o(.bss) for .bss
    usbdenum.o(i.USBDCDStallEP0) refers to usb.o(i.USBDevEndpointStall) for USBDevEndpointStall
    usbdenum.o(i.USBDCDStallEP0) refers to usbdenum.o(.bss) for .bss
    usbdenum.o(i.USBDCDTerm) refers to interrupt.o(i.IntDisable) for IntDisable
    usbdenum.o(i.USBDCDTerm) refers to usbtick.o(i.InternalUSBTickReset) for InternalUSBTickReset
    usbdenum.o(i.USBDCDTerm) refers to usb.o(i.USBIntDisableControl) for USBIntDisableControl
    usbdenum.o(i.USBDCDTerm) refers to usb.o(i.USBIntDisableEndpoint) for USBIntDisableEndpoint
    usbdenum.o(i.USBDCDTerm) refers to usb.o(i.USBDevDisconnect) for USBDevDisconnect
    usbdenum.o(i.USBDCDTerm) refers to usb.o(i.USBIntStatusControl) for USBIntStatusControl
    usbdenum.o(i.USBDCDTerm) refers to usb.o(i.USBIntStatusEndpoint) for USBIntStatusEndpoint
    usbdenum.o(i.USBDCDTerm) refers to sysctl.o(i.SysCtlUSBPLLDisable) for SysCtlUSBPLLDisable
    usbdenum.o(i.USBDCDTerm) refers to sysctl.o(i.SysCtlPeripheralDisable) for SysCtlPeripheralDisable
    usbdenum.o(i.USBDCDTerm) refers to usbdenum.o(.bss) for .bss
    usbdenum.o(i.USBDCDTerm) refers to usbdenum.o(.data) for .data
    usbdenum.o(i.USBDClearFeature) refers to usb.o(i.USBDevEndpointDataAck) for USBDevEndpointDataAck
    usbdenum.o(i.USBDClearFeature) refers to usb.o(i.USBDevEndpointStall) for USBDevEndpointStall
    usbdenum.o(i.USBDClearFeature) refers to usb.o(i.USBDevEndpointStallClear) for USBDevEndpointStallClear
    usbdenum.o(i.USBDClearFeature) refers to usbdenum.o(.bss) for .bss
    usbdenum.o(i.USBDEP0StateTx) refers to usb.o(i.USBEndpointDataPut) for USBEndpointDataPut
    usbdenum.o(i.USBDEP0StateTx) refers to usb.o(i.USBEndpointDataSend) for USBEndpointDataSend
    usbdenum.o(i.USBDEP0StateTx) refers to usbdenum.o(.bss) for .bss
    usbdenum.o(i.USBDEP0StateTx) refers to usbdenum.o(.data) for .data
    usbdenum.o(i.USBDEP0StateTxConfig) refers to usb.o(i.USBEndpointDataPut) for USBEndpointDataPut
    usbdenum.o(i.USBDEP0StateTxConfig) refers to usb.o(i.USBEndpointDataSend) for USBEndpointDataSend
    usbdenum.o(i.USBDEP0StateTxConfig) refers to usbdcdesc.o(i.USBDCDConfigDescGetSize) for USBDCDConfigDescGetSize
    usbdenum.o(i.USBDEP0StateTxConfig) refers to usbdenum.o(.bss) for .bss
    usbdenum.o(i.USBDEP0StateTxConfig) refers to usbdenum.o(.data) for .data
    usbdenum.o(i.USBDGetConfiguration) refers to usb.o(i.USBDevEndpointDataAck) for USBDevEndpointDataAck
    usbdenum.o(i.USBDGetConfiguration) refers to usbdenum.o(i.USBDEP0StateTx) for USBDEP0StateTx
    usbdenum.o(i.USBDGetDescriptor) refers to usb.o(i.USBDevEndpointDataAck) for USBDevEndpointDataAck
    usbdenum.o(i.USBDGetDescriptor) refers to usb.o(i.USBDevEndpointStall) for USBDevEndpointStall
    usbdenum.o(i.USBDGetDescriptor) refers to usbdcdesc.o(i.USBDCDConfigDescGetSize) for USBDCDConfigDescGetSize
    usbdenum.o(i.USBDGetDescriptor) refers to usbdenum.o(i.USBDEP0StateTxConfig) for USBDEP0StateTxConfig
    usbdenum.o(i.USBDGetDescriptor) refers to usbdenum.o(i.USBDEP0StateTx) for USBDEP0StateTx
    usbdenum.o(i.USBDGetDescriptor) refers to usbdenum.o(.data) for .data
    usbdenum.o(i.USBDGetDescriptor) refers to usbdenum.o(.bss) for .bss
    usbdenum.o(i.USBDGetInterface) refers to usb.o(i.USBDevEndpointDataAck) for USBDevEndpointDataAck
    usbdenum.o(i.USBDGetInterface) refers to usbdenum.o(i.USBDEP0StateTx) for USBDEP0StateTx
    usbdenum.o(i.USBDGetInterface) refers to usb.o(i.USBDevEndpointStall) for USBDevEndpointStall
    usbdenum.o(i.USBDGetInterface) refers to usbdenum.o(.bss) for .bss
    usbdenum.o(i.USBDGetStatus) refers to usb.o(i.USBDevEndpointDataAck) for USBDevEndpointDataAck
    usbdenum.o(i.USBDGetStatus) refers to usbdenum.o(i.USBDEP0StateTx) for USBDEP0StateTx
    usbdenum.o(i.USBDGetStatus) refers to usb.o(i.USBDevEndpointStall) for USBDevEndpointStall
    usbdenum.o(i.USBDGetStatus) refers to usbdenum.o(.bss) for .bss
    usbdenum.o(i.USBDReadAndDispatchRequest) refers to usb.o(i.USBEndpointDataGet) for USBEndpointDataGet
    usbdenum.o(i.USBDReadAndDispatchRequest) refers to usb.o(i.USBDevEndpointStall) for USBDevEndpointStall
    usbdenum.o(i.USBDReadAndDispatchRequest) refers to usbdenum.o(.bss) for .bss
    usbdenum.o(i.USBDReadAndDispatchRequest) refers to usbdenum.o(.data) for .data
    usbdenum.o(i.USBDReadAndDispatchRequest) refers to usbdenum.o(.constdata) for .constdata
    usbdenum.o(i.USBDSetAddress) refers to usb.o(i.USBDevEndpointDataAck) for USBDevEndpointDataAck
    usbdenum.o(i.USBDSetConfiguration) refers to usb.o(i.USBDevEndpointDataAck) for USBDevEndpointDataAck
    usbdenum.o(i.USBDSetConfiguration) refers to usb.o(i.USBDevEndpointStall) for USBDevEndpointStall
    usbdenum.o(i.USBDSetConfiguration) refers to usbdconfig.o(i.USBDeviceConfig) for USBDeviceConfig
    usbdenum.o(i.USBDSetConfiguration) refers to usbdenum.o(.data) for .data
    usbdenum.o(i.USBDSetConfiguration) refers to usbdenum.o(.bss) for .bss
    usbdenum.o(i.USBDSetDescriptor) refers to usb.o(i.USBDevEndpointDataAck) for USBDevEndpointDataAck
    usbdenum.o(i.USBDSetDescriptor) refers to usb.o(i.USBDevEndpointStall) for USBDevEndpointStall
    usbdenum.o(i.USBDSetDescriptor) refers to usbdenum.o(.bss) for .bss
    usbdenum.o(i.USBDSetFeature) refers to usb.o(i.USBDevEndpointDataAck) for USBDevEndpointDataAck
    usbdenum.o(i.USBDSetFeature) refers to usb.o(i.USBDevEndpointStall) for USBDevEndpointStall
    usbdenum.o(i.USBDSetFeature) refers to usbdenum.o(.bss) for .bss
    usbdenum.o(i.USBDSetInterface) refers to usb.o(i.USBDevEndpointDataAck) for USBDevEndpointDataAck
    usbdenum.o(i.USBDSetInterface) refers to usbdcdesc.o(i.USBDCDConfigDescGetNum) for USBDCDConfigDescGetNum
    usbdenum.o(i.USBDSetInterface) refers to usbdcdesc.o(i.USBDCDConfigGetInterface) for USBDCDConfigGetInterface
    usbdenum.o(i.USBDSetInterface) refers to usbdconfig.o(i.USBDeviceConfigAlternate) for USBDeviceConfigAlternate
    usbdenum.o(i.USBDSetInterface) refers to usb.o(i.USBDevEndpointStall) for USBDevEndpointStall
    usbdenum.o(i.USBDSetInterface) refers to usbdenum.o(.data) for .data
    usbdenum.o(i.USBDSetInterface) refers to usbdenum.o(.bss) for .bss
    usbdenum.o(i.USBDSyncFrame) refers to usb.o(i.USBDevEndpointDataAck) for USBDevEndpointDataAck
    usbdenum.o(i.USBDSyncFrame) refers to usb.o(i.USBDevEndpointStall) for USBDevEndpointStall
    usbdenum.o(i.USBDSyncFrame) refers to usbdenum.o(.bss) for .bss
    usbdenum.o(i.USBDeviceEnumHandler) refers to usb.o(i.USBEndpointStatus) for USBEndpointStatus
    usbdenum.o(i.USBDeviceEnumHandler) refers to usb.o(i.USBDevAddrSet) for USBDevAddrSet
    usbdenum.o(i.USBDeviceEnumHandler) refers to usbdenum.o(i.USBDReadAndDispatchRequest) for USBDReadAndDispatchRequest
    usbdenum.o(i.USBDeviceEnumHandler) refers to usbdenum.o(i.USBDEP0StateTx) for USBDEP0StateTx
    usbdenum.o(i.USBDeviceEnumHandler) refers to usbdenum.o(i.USBDEP0StateTxConfig) for USBDEP0StateTxConfig
    usbdenum.o(i.USBDeviceEnumHandler) refers to usb.o(i.USBEndpointDataGet) for USBEndpointDataGet
    usbdenum.o(i.USBDeviceEnumHandler) refers to usb.o(i.USBDevEndpointDataAck) for USBDevEndpointDataAck
    usbdenum.o(i.USBDeviceEnumHandler) refers to usb.o(i.USBDevEndpointStatusClear) for USBDevEndpointStatusClear
    usbdenum.o(i.USBDeviceEnumHandler) refers to usbdenum.o(.data) for .data
    usbdenum.o(i.USBDeviceEnumHandler) refers to usbdenum.o(.bss) for .bss
    usbdenum.o(i.USBDeviceEnumResetHandler) refers to usbdenum.o(.data) for .data
    usbdenum.o(i.USBDeviceEnumResetHandler) refers to usbdenum.o(.bss) for .bss
    usbdenum.o(i.USBDeviceIntHandlerInternal) refers to usbdenum.o(i.USBDeviceResumeTickHandler) for USBDeviceResumeTickHandler
    usbdenum.o(i.USBDeviceIntHandlerInternal) refers to usb.o(i.USBDevDisconnect) for USBDevDisconnect
    usbdenum.o(i.USBDeviceIntHandlerInternal) refers to usbtick.o(i.InternalUSBStartOfFrameTick) for InternalUSBStartOfFrameTick
    usbdenum.o(i.USBDeviceIntHandlerInternal) refers to usb.o(i.USBLPMIntStatus) for USBLPMIntStatus
    usbdenum.o(i.USBDeviceIntHandlerInternal) refers to usb.o(i.USBIntStatusEndpoint) for USBIntStatusEndpoint
    usbdenum.o(i.USBDeviceIntHandlerInternal) refers to usbdenum.o(i.USBDeviceEnumHandler) for USBDeviceEnumHandler
    usbdenum.o(i.USBDeviceIntHandlerInternal) refers to usb.o(i.USBDevLPMEnable) for USBDevLPMEnable
    usbdenum.o(i.USBDeviceIntHandlerInternal) refers to usbdenum.o(.data) for .data
    usbdenum.o(i.USBDeviceIntHandlerInternal) refers to usbdenum.o(.bss) for .bss
    usbdenum.o(i.USBDeviceIntHandlerInternal) refers to usbtick.o(.data) for g_ui32USBSOFCount
    usbdenum.o(i.USBDeviceResumeTickHandler) refers to usb.o(i.USBHostResume) for USBHostResume
    usbdenum.o(i.USBDeviceResumeTickHandler) refers to usbdenum.o(.bss) for .bss
    usbdenum.o(i.USBDeviceResumeTickHandler) refers to usbdenum.o(.data) for .data
    usbdenum.o(.constdata) refers to usbdenum.o(i.USBDGetStatus) for USBDGetStatus
    usbdenum.o(.constdata) refers to usbdenum.o(i.USBDClearFeature) for USBDClearFeature
    usbdenum.o(.constdata) refers to usbdenum.o(i.USBDSetFeature) for USBDSetFeature
    usbdenum.o(.constdata) refers to usbdenum.o(i.USBDSetAddress) for USBDSetAddress
    usbdenum.o(.constdata) refers to usbdenum.o(i.USBDGetDescriptor) for USBDGetDescriptor
    usbdenum.o(.constdata) refers to usbdenum.o(i.USBDSetDescriptor) for USBDSetDescriptor
    usbdenum.o(.constdata) refers to usbdenum.o(i.USBDGetConfiguration) for USBDGetConfiguration
    usbdenum.o(.constdata) refers to usbdenum.o(i.USBDSetConfiguration) for USBDSetConfiguration
    usbdenum.o(.constdata) refers to usbdenum.o(i.USBDGetInterface) for USBDGetInterface
    usbdenum.o(.constdata) refers to usbdenum.o(i.USBDSetInterface) for USBDSetInterface
    usbdenum.o(.constdata) refers to usbdenum.o(i.USBDSyncFrame) for USBDSyncFrame
    usbhostenum.o(i.ConfigDescAlloc) refers to usbhostenum.o(.bss) for .bss
    usbhostenum.o(i.ConfigDescFree) refers to usbhostenum.o(.bss) for .bss
    usbhostenum.o(i.InternalUSBHCDSendEvent) refers to usbhostenum.o(.bss) for .bss
    usbhostenum.o(i.ProcessUSBDeviceStateMachine) refers to interrupt.o(i.IntDisable) for IntDisable
    usbhostenum.o(i.ProcessUSBDeviceStateMachine) refers to usbhostenum.o(i.USBHCDDeviceDisconnected) for USBHCDDeviceDisconnected
    usbhostenum.o(i.ProcessUSBDeviceStateMachine) refers to sysctl.o(i.SysCtlPeripheralReset) for SysCtlPeripheralReset
    usbhostenum.o(i.ProcessUSBDeviceStateMachine) refers to sysctl.o(.emb_text) for SysCtlDelay
    usbhostenum.o(i.ProcessUSBDeviceStateMachine) refers to usbhostenum.o(i.USBHCDInitInternal) for USBHCDInitInternal
    usbhostenum.o(i.ProcessUSBDeviceStateMachine) refers to usb.o(i.USBHostReset) for USBHostReset
    usbhostenum.o(i.ProcessUSBDeviceStateMachine) refers to usbhostenum.o(i.USBHCDControlTransfer) for USBHCDControlTransfer
    usbhostenum.o(i.ProcessUSBDeviceStateMachine) refers to usb.o(i.USBHostSpeedGet) for USBHostSpeedGet
    usbhostenum.o(i.ProcessUSBDeviceStateMachine) refers to usbhostenum.o(i.InternalUSBHCDSendEvent) for InternalUSBHCDSendEvent
    usbhostenum.o(i.ProcessUSBDeviceStateMachine) refers to usbhhub.o(i.USBHHubEnumerationError) for USBHHubEnumerationError
    usbhostenum.o(i.ProcessUSBDeviceStateMachine) refers to usbdesc.o(i.USBDescGetInterface) for USBDescGetInterface
    usbhostenum.o(i.ProcessUSBDeviceStateMachine) refers to usbhostenum.o(i.ConfigDescAlloc) for ConfigDescAlloc
    usbhostenum.o(i.ProcessUSBDeviceStateMachine) refers to usbhhub.o(i.USBHHubEnumerationComplete) for USBHHubEnumerationComplete
    usbhostenum.o(i.ProcessUSBDeviceStateMachine) refers to usbhostenum.o(.bss) for .bss
    usbhostenum.o(i.ProcessUSBDeviceStateMachine) refers to usbhostenum.o(.data) for .data
    usbhostenum.o(i.USB0HostIntHandler) refers to usb.o(i.USBIntStatusControl) for USBIntStatusControl
    usbhostenum.o(i.USB0HostIntHandler) refers to usbhostenum.o(i.USBHostIntHandlerInternal) for USBHostIntHandlerInternal
    usbhostenum.o(i.USBHCDControlTransfer) refers to usb.o(i.USBHostAddrSet) for USBHostAddrSet
    usbhostenum.o(i.USBHCDControlTransfer) refers to usb.o(i.USBHostEndpointConfig) for USBHostEndpointConfig
    usbhostenum.o(i.USBHCDControlTransfer) refers to usb.o(i.USBEndpointDataPut) for USBEndpointDataPut
    usbhostenum.o(i.USBHCDControlTransfer) refers to usb.o(i.USBHostHubAddrSet) for USBHostHubAddrSet
    usbhostenum.o(i.USBHCDControlTransfer) refers to usb.o(i.USBEndpointDataSend) for USBEndpointDataSend
    usbhostenum.o(i.USBHCDControlTransfer) refers to interrupt.o(i.IntDisable) for IntDisable
    usbhostenum.o(i.USBHCDControlTransfer) refers to usb.o(i.USBEndpointStatus) for USBEndpointStatus
    usbhostenum.o(i.USBHCDControlTransfer) refers to usb.o(i.USBHostEndpointStatusClear) for USBHostEndpointStatusClear
    usbhostenum.o(i.USBHCDControlTransfer) refers to usb.o(i.USBFIFOFlush) for USBFIFOFlush
    usbhostenum.o(i.USBHCDControlTransfer) refers to usb.o(i.USBHostRequestStatus) for USBHostRequestStatus
    usbhostenum.o(i.USBHCDControlTransfer) refers to usb.o(i.USBHostRequestIN) for USBHostRequestIN
    usbhostenum.o(i.USBHCDControlTransfer) refers to usb.o(i.USBEndpointDataGet) for USBEndpointDataGet
    usbhostenum.o(i.USBHCDControlTransfer) refers to usb.o(i.USBHostEndpointDataAck) for USBHostEndpointDataAck
    usbhostenum.o(i.USBHCDControlTransfer) refers to interrupt.o(i.IntEnable) for IntEnable
    usbhostenum.o(i.USBHCDControlTransfer) refers to usbhostenum.o(.bss) for .bss
    usbhostenum.o(i.USBHCDDevAddress) refers to usbhostenum.o(.bss) for .bss
    usbhostenum.o(i.USBHCDDevClass) refers to usbdesc.o(i.USBDescGetInterface) for USBDescGetInterface
    usbhostenum.o(i.USBHCDDevClass) refers to usbhostenum.o(.bss) for .bss
    usbhostenum.o(i.USBHCDDevHubPort) refers to usbhostenum.o(.bss) for .bss
    usbhostenum.o(i.USBHCDDevProtocol) refers to usbdesc.o(i.USBDescGetInterface) for USBDescGetInterface
    usbhostenum.o(i.USBHCDDevProtocol) refers to usbhostenum.o(.bss) for .bss
    usbhostenum.o(i.USBHCDDevSubClass) refers to usbdesc.o(i.USBDescGetInterface) for USBDescGetInterface
    usbhostenum.o(i.USBHCDDevSubClass) refers to usbhostenum.o(.bss) for .bss
    usbhostenum.o(i.USBHCDDeviceDisconnected) refers to usbhostenum.o(i.InternalUSBHCDSendEvent) for InternalUSBHCDSendEvent
    usbhostenum.o(i.USBHCDDeviceDisconnected) refers to usbhostenum.o(i.ConfigDescFree) for ConfigDescFree
    usbhostenum.o(i.USBHCDDeviceDisconnected) refers to usbmode.o(i.OTGDeviceDisconnect) for OTGDeviceDisconnect
    usbhostenum.o(i.USBHCDDeviceDisconnected) refers to usbhostenum.o(.bss) for .bss
    usbhostenum.o(i.USBHCDDeviceDisconnected) refers to usbmode.o(.data) for g_iUSBMode
    usbhostenum.o(i.USBHCDEventDisable) refers to usbhostenum.o(.bss) for .bss
    usbhostenum.o(i.USBHCDEventEnable) refers to usbhostenum.o(.bss) for .bss
    usbhostenum.o(i.USBHCDFeatureSet) refers to usbhostenum.o(.data) for .data
    usbhostenum.o(i.USBHCDFeatureSet) refers to usbhostenum.o(.bss) for .bss
    usbhostenum.o(i.USBHCDHubDeviceConnected) refers to usbhostenum.o(.bss) for .bss
    usbhostenum.o(i.USBHCDHubDeviceDisconnected) refers to usbhostenum.o(.bss) for .bss
    usbhostenum.o(i.USBHCDInit) refers to sysctl.o(i.SysCtlPeripheralReset) for SysCtlPeripheralReset
    usbhostenum.o(i.USBHCDInit) refers to sysctl.o(i.SysCtlPeripheralEnable) for SysCtlPeripheralEnable
    usbhostenum.o(i.USBHCDInit) refers to sysctl.o(i.SysCtlUSBPLLEnable) for SysCtlUSBPLLEnable
    usbhostenum.o(i.USBHCDInit) refers to usb.o(i.USBClockEnable) for USBClockEnable
    usbhostenum.o(i.USBHCDInit) refers to usb.o(i.USBULPIEnable) for USBULPIEnable
    usbhostenum.o(i.USBHCDInit) refers to usbulpi.o(i.ULPIConfigSet) for ULPIConfigSet
    usbhostenum.o(i.USBHCDInit) refers to usb.o(i.USBULPIDisable) for USBULPIDisable
    usbhostenum.o(i.USBHCDInit) refers to usb.o(i.USBHostMode) for USBHostMode
    usbhostenum.o(i.USBHCDInit) refers to usbhostenum.o(i.USBHCDInitInternal) for USBHCDInitInternal
    usbhostenum.o(i.USBHCDInit) refers to usbmode.o(.data) for g_iUSBMode
    usbhostenum.o(i.USBHCDInit) refers to usbhostenum.o(.data) for .data
    usbhostenum.o(i.USBHCDInit) refers to usbhostenum.o(.bss) for .bss
    usbhostenum.o(i.USBHCDInitInternal) refers to usb.o(i.USBNumEndpointsGet) for USBNumEndpointsGet
    usbhostenum.o(i.USBHCDInitInternal) refers to usbhhub.o(i.USBHHubInit) for USBHHubInit
    usbhostenum.o(i.USBHCDInitInternal) refers to usbdma.o(i.USBLibDMAInit) for USBLibDMAInit
    usbhostenum.o(i.USBHCDInitInternal) refers to usbtick.o(i.InternalUSBTickInit) for InternalUSBTickInit
    usbhostenum.o(i.USBHCDInitInternal) refers to usb.o(i.USBHostEndpointConfig) for USBHostEndpointConfig
    usbhostenum.o(i.USBHCDInitInternal) refers to usb.o(i.USBIntEnableControl) for USBIntEnableControl
    usbhostenum.o(i.USBHCDInitInternal) refers to usb.o(i.USBIntEnableEndpoint) for USBIntEnableEndpoint
    usbhostenum.o(i.USBHCDInitInternal) refers to interrupt.o(i.IntEnable) for IntEnable
    usbhostenum.o(i.USBHCDInitInternal) refers to usbhostenum.o(i.USBHCDPowerConfigSet) for USBHCDPowerConfigSet
    usbhostenum.o(i.USBHCDInitInternal) refers to usb.o(i.USBHostPwrEnable) for USBHostPwrEnable
    usbhostenum.o(i.USBHCDInitInternal) refers to usb.o(i.USBOTGSessionRequest) for USBOTGSessionRequest
    usbhostenum.o(i.USBHCDInitInternal) refers to usb.o(i.USBHostLPMConfig) for USBHostLPMConfig
    usbhostenum.o(i.USBHCDInitInternal) refers to usb.o(i.USBLPMIntEnable) for USBLPMIntEnable
    usbhostenum.o(i.USBHCDInitInternal) refers to usbhostenum.o(.bss) for .bss
    usbhostenum.o(i.USBHCDInitInternal) refers to usbhostenum.o(.data) for .data
    usbhostenum.o(i.USBHCDInitInternal) refers to usbmode.o(.data) for g_iUSBMode
    usbhostenum.o(i.USBHCDLPMResume) refers to usb.o(i.USBHostLPMResume) for USBHostLPMResume
    usbhostenum.o(i.USBHCDLPMSleep) refers to interrupt.o(i.IntDisable) for IntDisable
    usbhostenum.o(i.USBHCDLPMSleep) refers to usb.o(i.USBHostLPMSend) for USBHostLPMSend
    usbhostenum.o(i.USBHCDLPMSleep) refers to interrupt.o(i.IntEnable) for IntEnable
    usbhostenum.o(i.USBHCDLPMSleep) refers to usbhostenum.o(.bss) for .bss
    usbhostenum.o(i.USBHCDMain) refers to interrupt.o(i.IntDisable) for IntDisable
    usbhostenum.o(i.USBHCDMain) refers to usbhostenum.o(i.InternalUSBHCDSendEvent) for InternalUSBHCDSendEvent
    usbhostenum.o(i.USBHCDMain) refers to usbhostenum.o(i.USBHostCheckPipes) for USBHostCheckPipes
    usbhostenum.o(i.USBHCDMain) refers to usbhhub.o(i.USBHHubMain) for USBHHubMain
    usbhostenum.o(i.USBHCDMain) refers to interrupt.o(i.IntEnable) for IntEnable
    usbhostenum.o(i.USBHCDMain) refers to usbhostenum.o(i.ProcessUSBDeviceStateMachine) for ProcessUSBDeviceStateMachine
    usbhostenum.o(i.USBHCDMain) refers to usbhostenum.o(.bss) for .bss
    usbhostenum.o(i.USBHCDPipeAlloc) refers to usbhostenum.o(i.USBHCDPipeAllocSize) for USBHCDPipeAllocSize
    usbhostenum.o(i.USBHCDPipeAllocSize) refers to usb.o(i.USBHostEndpointStatusClear) for USBHostEndpointStatusClear
    usbhostenum.o(i.USBHCDPipeAllocSize) refers to usb.o(i.USBEndpointDataToggleClear) for USBEndpointDataToggleClear
    usbhostenum.o(i.USBHCDPipeAllocSize) refers to usb.o(i.USBFIFOConfigSet) for USBFIFOConfigSet
    usbhostenum.o(i.USBHCDPipeAllocSize) refers to usb.o(i.USBHostAddrSet) for USBHostAddrSet
    usbhostenum.o(i.USBHCDPipeAllocSize) refers to usb.o(i.USBHostHubAddrSet) for USBHostHubAddrSet
    usbhostenum.o(i.USBHCDPipeAllocSize) refers to usbhostenum.o(.bss) for .bss
    usbhostenum.o(i.USBHCDPipeAllocSize) refers to usbhostenum.o(.data) for .data
    usbhostenum.o(i.USBHCDPipeConfig) refers to usb.o(i.USBHostEndpointConfig) for USBHostEndpointConfig
    usbhostenum.o(i.USBHCDPipeConfig) refers to usbhostenum.o(.data) for .data
    usbhostenum.o(i.USBHCDPipeConfig) refers to usbhostenum.o(.bss) for .bss
    usbhostenum.o(i.USBHCDPipeDataAck) refers to usb.o(i.USBHostEndpointDataAck) for USBHostEndpointDataAck
    usbhostenum.o(i.USBHCDPipeDataAck) refers to usbhostenum.o(.bss) for .bss
    usbhostenum.o(i.USBHCDPipeFree) refers to usb.o(i.USBHostAddrSet) for USBHostAddrSet
    usbhostenum.o(i.USBHCDPipeFree) refers to usb.o(i.USBHostHubAddrSet) for USBHostHubAddrSet
    usbhostenum.o(i.USBHCDPipeFree) refers to usb.o(i.USBHostRequestINClear) for USBHostRequestINClear
    usbhostenum.o(i.USBHCDPipeFree) refers to usbhostenum.o(.data) for .data
    usbhostenum.o(i.USBHCDPipeFree) refers to usbhostenum.o(.bss) for .bss
    usbhostenum.o(i.USBHCDPipeRead) refers to interrupt.o(i.IntDisable) for IntDisable
    usbhostenum.o(i.USBHCDPipeRead) refers to interrupt.o(i.IntEnable) for IntEnable
    usbhostenum.o(i.USBHCDPipeRead) refers to usb.o(i.USBEndpointDMADisable) for USBEndpointDMADisable
    usbhostenum.o(i.USBHCDPipeRead) refers to usb.o(i.USBHostRequestIN) for USBHostRequestIN
    usbhostenum.o(i.USBHCDPipeRead) refers to usbhostenum.o(i.USBHCDControlTransfer) for USBHCDControlTransfer
    usbhostenum.o(i.USBHCDPipeRead) refers to usb.o(i.USBEndpointDataToggleClear) for USBEndpointDataToggleClear
    usbhostenum.o(i.USBHCDPipeRead) refers to sysctl.o(.emb_text) for SysCtlDelay
    usbhostenum.o(i.USBHCDPipeRead) refers to usb.o(i.USBHostEndpointDataAck) for USBHostEndpointDataAck
    usbhostenum.o(i.USBHCDPipeRead) refers to usbhostenum.o(.bss) for .bss
    usbhostenum.o(i.USBHCDPipeRead) refers to usbhostenum.o(.data) for .data
    usbhostenum.o(i.USBHCDPipeReadNonBlocking) refers to usb.o(i.USBEndpointDataGet) for USBEndpointDataGet
    usbhostenum.o(i.USBHCDPipeReadNonBlocking) refers to usb.o(i.USBHostEndpointDataAck) for USBHostEndpointDataAck
    usbhostenum.o(i.USBHCDPipeReadNonBlocking) refers to usbhostenum.o(.bss) for .bss
    usbhostenum.o(i.USBHCDPipeSchedule) refers to usb.o(i.USBEndpointDataPut) for USBEndpointDataPut
    usbhostenum.o(i.USBHCDPipeSchedule) refers to usb.o(i.USBEndpointDataSend) for USBEndpointDataSend
    usbhostenum.o(i.USBHCDPipeSchedule) refers to usb.o(i.USBHostRequestIN) for USBHostRequestIN
    usbhostenum.o(i.USBHCDPipeSchedule) refers to usb.o(i.USBEndpointDMADisable) for USBEndpointDMADisable
    usbhostenum.o(i.USBHCDPipeSchedule) refers to usbhostenum.o(.bss) for .bss
    usbhostenum.o(i.USBHCDPipeTransferSizeGet) refers to usbhostenum.o(.bss) for .bss
    usbhostenum.o(i.USBHCDPipeWrite) refers to interrupt.o(i.IntDisable) for IntDisable
    usbhostenum.o(i.USBHCDPipeWrite) refers to interrupt.o(i.IntEnable) for IntEnable
    usbhostenum.o(i.USBHCDPipeWrite) refers to usb.o(i.USBEndpointDMADisable) for USBEndpointDMADisable
    usbhostenum.o(i.USBHCDPipeWrite) refers to usb.o(i.USBEndpointDataPut) for USBEndpointDataPut
    usbhostenum.o(i.USBHCDPipeWrite) refers to usb.o(i.USBEndpointDataSend) for USBEndpointDataSend
    usbhostenum.o(i.USBHCDPipeWrite) refers to usbhostenum.o(i.USBHCDControlTransfer) for USBHCDControlTransfer
    usbhostenum.o(i.USBHCDPipeWrite) refers to usb.o(i.USBEndpointDataToggleClear) for USBEndpointDataToggleClear
    usbhostenum.o(i.USBHCDPipeWrite) refers to sysctl.o(.emb_text) for SysCtlDelay
    usbhostenum.o(i.USBHCDPipeWrite) refers to usbhostenum.o(.bss) for .bss
    usbhostenum.o(i.USBHCDPipeWrite) refers to usbhostenum.o(.data) for .data
    usbhostenum.o(i.USBHCDPowerAutomatic) refers to usbhostenum.o(.data) for .data
    usbhostenum.o(i.USBHCDPowerConfigGet) refers to usbhostenum.o(.data) for .data
    usbhostenum.o(i.USBHCDPowerConfigInit) refers to usbhostenum.o(.data) for .data
    usbhostenum.o(i.USBHCDPowerConfigSet) refers to usb.o(i.USBHostPwrConfig) for USBHostPwrConfig
    usbhostenum.o(i.USBHCDPowerConfigSet) refers to usb.o(i.USBHostPwrEnable) for USBHostPwrEnable
    usbhostenum.o(i.USBHCDPowerConfigSet) refers to usbhostenum.o(.data) for .data
    usbhostenum.o(i.USBHCDRegisterDrivers) refers to usbhostenum.o(.bss) for .bss
    usbhostenum.o(i.USBHCDReset) refers to usb.o(i.USBHostReset) for USBHostReset
    usbhostenum.o(i.USBHCDReset) refers to sysctl.o(.emb_text) for SysCtlDelay
    usbhostenum.o(i.USBHCDReset) refers to usbhostenum.o(.data) for .data
    usbhostenum.o(i.USBHCDResume) refers to usb.o(i.USBHostResume) for USBHostResume
    usbhostenum.o(i.USBHCDResume) refers to sysctl.o(.emb_text) for SysCtlDelay
    usbhostenum.o(i.USBHCDResume) refers to usbhostenum.o(.data) for .data
    usbhostenum.o(i.USBHCDSetAddress) refers to usbhostenum.o(i.USBHCDControlTransfer) for USBHCDControlTransfer
    usbhostenum.o(i.USBHCDSetAddress) refers to sysctl.o(.emb_text) for SysCtlDelay
    usbhostenum.o(i.USBHCDSetAddress) refers to usbhostenum.o(.bss) for .bss
    usbhostenum.o(i.USBHCDSetAddress) refers to usbhostenum.o(.data) for .data
    usbhostenum.o(i.USBHCDSetConfig) refers to usbhostenum.o(i.USBHCDControlTransfer) for USBHCDControlTransfer
    usbhostenum.o(i.USBHCDSetInterface) refers to usbhostenum.o(i.USBHCDControlTransfer) for USBHCDControlTransfer
    usbhostenum.o(i.USBHCDStringDescriptorGet) refers to usbhostenum.o(i.USBHCDControlTransfer) for USBHCDControlTransfer
    usbhostenum.o(i.USBHCDSuspend) refers to usb.o(i.USBHostSuspend) for USBHostSuspend
    usbhostenum.o(i.USBHCDTerm) refers to usb.o(i.USBOTGSessionRequest) for USBOTGSessionRequest
    usbhostenum.o(i.USBHCDTerm) refers to usb.o(i.USBHostPwrDisable) for USBHostPwrDisable
    usbhostenum.o(i.USBHCDTerm) refers to interrupt.o(i.IntDisable) for IntDisable
    usbhostenum.o(i.USBHCDTerm) refers to usb.o(i.USBIntDisableControl) for USBIntDisableControl
    usbhostenum.o(i.USBHCDTerm) refers to usb.o(i.USBIntDisableEndpoint) for USBIntDisableEndpoint
    usbhostenum.o(i.USBHCDTerm) refers to usbhostenum.o(i.ConfigDescFree) for ConfigDescFree
    usbhostenum.o(i.USBHCDTerm) refers to usbhostenum.o(.bss) for .bss
    usbhostenum.o(i.USBHostCheckPipes) refers to usbhostenum.o(.data) for .data
    usbhostenum.o(i.USBHostCheckPipes) refers to usbhostenum.o(.bss) for .bss
    usbhostenum.o(i.USBHostIntHandlerInternal) refers to usb.o(i.USBHostPwrDisable) for USBHostPwrDisable
    usbhostenum.o(i.USBHostIntHandlerInternal) refers to interrupt.o(i.IntDisable) for IntDisable
    usbhostenum.o(i.USBHostIntHandlerInternal) refers to usb.o(i.USBHostPwrEnable) for USBHostPwrEnable
    usbhostenum.o(i.USBHostIntHandlerInternal) refers to usb.o(i.USBOTGSessionRequest) for USBOTGSessionRequest
    usbhostenum.o(i.USBHostIntHandlerInternal) refers to usb.o(i.USBOTGMode) for USBOTGMode
    usbhostenum.o(i.USBHostIntHandlerInternal) refers to usbtick.o(i.InternalUSBStartOfFrameTick) for InternalUSBStartOfFrameTick
    usbhostenum.o(i.USBHostIntHandlerInternal) refers to usb.o(i.USBLPMIntStatus) for USBLPMIntStatus
    usbhostenum.o(i.USBHostIntHandlerInternal) refers to usb.o(i.USBHostEndpointDataAck) for USBHostEndpointDataAck
    usbhostenum.o(i.USBHostIntHandlerInternal) refers to usb.o(i.USBEndpointDataSend) for USBEndpointDataSend
    usbhostenum.o(i.USBHostIntHandlerInternal) refers to usb.o(i.USBIntStatusEndpoint) for USBIntStatusEndpoint
    usbhostenum.o(i.USBHostIntHandlerInternal) refers to usb.o(i.USBEndpointStatus) for USBEndpointStatus
    usbhostenum.o(i.USBHostIntHandlerInternal) refers to usb.o(i.USBHostEndpointStatusClear) for USBHostEndpointStatusClear
    usbhostenum.o(i.USBHostIntHandlerInternal) refers to usbdma.o(i.USBLibDMAAddrGet) for USBLibDMAAddrGet
    usbhostenum.o(i.USBHostIntHandlerInternal) refers to usb.o(i.USBEndpointDataAvail) for USBEndpointDataAvail
    usbhostenum.o(i.USBHostIntHandlerInternal) refers to usb.o(i.USBEndpointDataGet) for USBEndpointDataGet
    usbhostenum.o(i.USBHostIntHandlerInternal) refers to usbhostenum.o(.bss) for .bss
    usbhostenum.o(i.USBHostIntHandlerInternal) refers to usbmode.o(.data) for g_iUSBMode
    usbhostenum.o(i.USBHostIntHandlerInternal) refers to usbtick.o(.data) for g_ui32USBSOFCount
    usbhostenum.o(i.USBHostIntHandlerInternal) refers to usbhostenum.o(.data) for .data
    usbringbuf.o(i.USBRingBufAdvanceRead) refers to interrupt.o(i.IntMasterDisable) for IntMasterDisable
    usbringbuf.o(i.USBRingBufAdvanceRead) refers to interrupt.o(i.IntMasterEnable) for IntMasterEnable
    usbringbuf.o(i.USBRingBufFlush) refers to interrupt.o(i.IntMasterDisable) for IntMasterDisable
    usbringbuf.o(i.USBRingBufFlush) refers to interrupt.o(i.IntMasterEnable) for IntMasterEnable
    usbringbuf.o(i.USBRingBufRead) refers to interrupt.o(i.IntMasterDisable) for IntMasterDisable
    usbringbuf.o(i.USBRingBufRead) refers to interrupt.o(i.IntMasterEnable) for IntMasterEnable
    usbringbuf.o(i.USBRingBufReadOne) refers to interrupt.o(i.IntMasterDisable) for IntMasterDisable
    usbringbuf.o(i.USBRingBufReadOne) refers to interrupt.o(i.IntMasterEnable) for IntMasterEnable
    usbringbuf.o(i.USBRingBufWrite) refers to interrupt.o(i.IntMasterDisable) for IntMasterDisable
    usbringbuf.o(i.USBRingBufWrite) refers to interrupt.o(i.IntMasterEnable) for IntMasterEnable
    usbringbuf.o(i.USBRingBufWriteOne) refers to interrupt.o(i.IntMasterDisable) for IntMasterDisable
    usbringbuf.o(i.USBRingBufWriteOne) refers to interrupt.o(i.IntMasterEnable) for IntMasterEnable
    usbtick.o(i.InternalUSBRegisterTickHandler) refers to usbtick.o(.bss) for .bss
    usbtick.o(i.InternalUSBStartOfFrameTick) refers to usbtick.o(.data) for .data
    usbtick.o(i.InternalUSBStartOfFrameTick) refers to usbtick.o(.bss) for .bss
    usbtick.o(i.InternalUSBTickInit) refers to usbtick.o(.data) for .data
    usbtick.o(i.InternalUSBTickInit) refers to usbtick.o(.bss) for .bss
    usbtick.o(i.InternalUSBTickReset) refers to usbtick.o(.data) for .data
    usbdcdesc.o(i.USBDCDConfigDescGet) refers to usbdesc.o(i.USBDescGetNum) for USBDescGetNum
    usbdcdesc.o(i.USBDCDConfigDescGet) refers to usbdesc.o(i.USBDescGet) for USBDescGet
    usbdcdesc.o(i.USBDCDConfigDescGetNum) refers to usbdesc.o(i.USBDescGetNum) for USBDescGetNum
    usbdcdesc.o(i.USBDCDConfigGetInterface) refers to usbdesc.o(i.USBDescGetNum) for USBDescGetNum
    usbdcdesc.o(i.USBDCDConfigGetInterface) refers to usbdesc.o(i.USBDescGet) for USBDescGet
    usbdcdesc.o(i.USBDCDConfigGetInterfaceEndpoint) refers to usbdcdesc.o(i.USBDCDConfigGetInterface) for USBDCDConfigGetInterface
    usbdconfig.o(i.USBDeviceConfig) refers to usbdcdesc.o(i.USBDCDConfigDescGetNum) for USBDCDConfigDescGetNum
    usbdconfig.o(i.USBDeviceConfig) refers to usbdcdesc.o(i.USBDCDConfigDescGet) for USBDCDConfigDescGet
    usbdconfig.o(i.USBDeviceConfig) refers to usbdcdesc.o(i.USBDCDConfigGetInterface) for USBDCDConfigGetInterface
    usbdconfig.o(i.USBDeviceConfig) refers to usbdcdesc.o(i.USBDCDConfigGetInterfaceEndpoint) for USBDCDConfigGetInterfaceEndpoint
    usbdconfig.o(i.USBDeviceConfig) refers to usb.o(i.USBDevEndpointConfigSet) for USBDevEndpointConfigSet
    usbdconfig.o(i.USBDeviceConfig) refers to usb.o(i.USBFIFOConfigSet) for USBFIFOConfigSet
    usbdconfig.o(i.USBDeviceConfigAlternate) refers to usbdcdesc.o(i.USBDCDConfigDescGetNum) for USBDCDConfigDescGetNum
    usbdconfig.o(i.USBDeviceConfigAlternate) refers to usbdcdesc.o(i.USBDCDConfigGetInterface) for USBDCDConfigGetInterface
    usbdconfig.o(i.USBDeviceConfigAlternate) refers to usbdcdesc.o(i.USBDCDConfigGetInterfaceEndpoint) for USBDCDConfigGetInterfaceEndpoint
    usbdconfig.o(i.USBDeviceConfigAlternate) refers to usb.o(i.USBDevEndpointConfigSet) for USBDevEndpointConfigSet
    usbdma.o(i.USBLibDMAInit) refers to usb.o(i.USBControllerVersion) for USBControllerVersion
    usbdma.o(i.USBLibDMAInit) refers to usbdma.o(.bss) for .bss
    usbdma.o(i.USBLibDMAInit) refers to usbdma.o(i.uDMAUSBArbSizeSet) for uDMAUSBArbSizeSet
    usbdma.o(i.USBLibDMAInit) refers to usbdma.o(i.uDMAUSBChannelAllocate) for uDMAUSBChannelAllocate
    usbdma.o(i.USBLibDMAInit) refers to usbdma.o(i.uDMAUSBChannelDisable) for uDMAUSBChannelDisable
    usbdma.o(i.USBLibDMAInit) refers to usbdma.o(i.uDMAUSBChannelEnable) for uDMAUSBChannelEnable
    usbdma.o(i.USBLibDMAInit) refers to usbdma.o(i.uDMAUSBChannelIntEnable) for uDMAUSBChannelIntEnable
    usbdma.o(i.USBLibDMAInit) refers to usbdma.o(i.uDMAUSBChannelIntDisable) for uDMAUSBChannelIntDisable
    usbdma.o(i.USBLibDMAInit) refers to usbdma.o(i.uDMAUSBChannelRelease) for uDMAUSBChannelRelease
    usbdma.o(i.USBLibDMAInit) refers to usbdma.o(i.uDMAUSBChannelStatus) for uDMAUSBChannelStatus
    usbdma.o(i.USBLibDMAInit) refers to usbdma.o(i.DMAUSBIntHandler) for DMAUSBIntHandler
    usbdma.o(i.USBLibDMAInit) refers to usbdma.o(i.uDMAUSBIntStatus) for uDMAUSBIntStatus
    usbdma.o(i.USBLibDMAInit) refers to usbdma.o(i.DMAUSBIntStatusClear) for DMAUSBIntStatusClear
    usbdma.o(i.USBLibDMAInit) refers to usbdma.o(i.DMAUSBStatus) for DMAUSBStatus
    usbdma.o(i.USBLibDMAInit) refers to usbdma.o(i.uDMAUSBTransfer) for uDMAUSBTransfer
    usbdma.o(i.USBLibDMAInit) refers to usbdma.o(i.uDMAUSBUnitSizeSet) for uDMAUSBUnitSizeSet
    usbdma.o(i.USBLibDMAInit) refers to usbdma.o(i.iDMAUSBArbSizeSet) for iDMAUSBArbSizeSet
    usbdma.o(i.USBLibDMAInit) refers to usbdma.o(i.iDMAUSBChannelAllocate) for iDMAUSBChannelAllocate
    usbdma.o(i.USBLibDMAInit) refers to usbdma.o(i.iDMAUSBChannelStatus) for iDMAUSBChannelStatus
    usbdma.o(i.USBLibDMAInit) refers to usbdma.o(i.iDMAUSBIntStatus) for iDMAUSBIntStatus
    usbdma.o(i.USBLibDMAInit) refers to usbdma.o(i.iDMAUSBChannelIntEnable) for iDMAUSBChannelIntEnable
    usbdma.o(i.USBLibDMAInit) refers to usbdma.o(i.iDMAUSBChannelIntDisable) for iDMAUSBChannelIntDisable
    usbdma.o(i.USBLibDMAInit) refers to usbdma.o(i.iDMAUSBTransfer) for iDMAUSBTransfer
    usbdma.o(i.USBLibDMAInit) refers to usbdma.o(i.iDMAUSBChannelRelease) for iDMAUSBChannelRelease
    usbdma.o(i.USBLibDMAInit) refers to usbdma.o(i.iDMAUSBChannelEnable) for iDMAUSBChannelEnable
    usbdma.o(i.USBLibDMAInit) refers to usbdma.o(i.iDMAUSBChannelDisable) for iDMAUSBChannelDisable
    usbdma.o(i.USBLibDMAInit) refers to usbdma.o(i.iDMAUSBUnitSizeSet) for iDMAUSBUnitSizeSet
    usbdma.o(i.iDMAUSBChannelAllocate) refers to usb.o(i.USBDMAChannelDisable) for USBDMAChannelDisable
    usbdma.o(i.iDMAUSBChannelDisable) refers to usb.o(i.USBDMAChannelDisable) for USBDMAChannelDisable
    usbdma.o(i.iDMAUSBChannelDisable) refers to usb.o(i.USBDMAChannelIntDisable) for USBDMAChannelIntDisable
    usbdma.o(i.iDMAUSBChannelEnable) refers to interrupt.o(i.IntIsEnabled) for IntIsEnabled
    usbdma.o(i.iDMAUSBChannelEnable) refers to interrupt.o(i.IntDisable) for IntDisable
    usbdma.o(i.iDMAUSBChannelEnable) refers to usb.o(i.USBDMAChannelIntEnable) for USBDMAChannelIntEnable
    usbdma.o(i.iDMAUSBChannelEnable) refers to usb.o(i.USBDMAChannelEnable) for USBDMAChannelEnable
    usbdma.o(i.iDMAUSBChannelEnable) refers to interrupt.o(i.IntEnable) for IntEnable
    usbdma.o(i.iDMAUSBChannelIntDisable) refers to usb.o(i.USBDMAChannelIntDisable) for USBDMAChannelIntDisable
    usbdma.o(i.iDMAUSBChannelIntEnable) refers to usb.o(i.USBDMAChannelIntEnable) for USBDMAChannelIntEnable
    usbdma.o(i.iDMAUSBChannelRelease) refers to usb.o(i.USBDMAChannelDisable) for USBDMAChannelDisable
    usbdma.o(i.iDMAUSBChannelStatus) refers to usb.o(i.USBDMAChannelStatus) for USBDMAChannelStatus
    usbdma.o(i.iDMAUSBIntStatus) refers to usb.o(i.USBDMAChannelIntStatus) for USBDMAChannelIntStatus
    usbdma.o(i.iDMAUSBTransfer) refers to usb.o(i.USBDMAChannelAddressSet) for USBDMAChannelAddressSet
    usbdma.o(i.iDMAUSBTransfer) refers to usb.o(i.USBDMAChannelCountSet) for USBDMAChannelCountSet
    usbdma.o(i.iDMAUSBTransfer) refers to usb.o(i.USBEndpointPacketCountSet) for USBEndpointPacketCountSet
    usbdma.o(i.iDMAUSBTransfer) refers to usb.o(i.USBEndpointDMAConfigSet) for USBEndpointDMAConfigSet
    usbdma.o(i.iDMAUSBTransfer) refers to usb.o(i.USBDMAChannelConfigSet) for USBDMAChannelConfigSet
    usbdma.o(i.iDMAUSBTransfer) refers to usb.o(i.USBEndpointDMAEnable) for USBEndpointDMAEnable
    usbdma.o(i.iDMAUSBTransfer) refers to usb.o(i.USBDMAChannelEnable) for USBDMAChannelEnable
    usbdma.o(i.iDMAUSBTransfer) refers to usb.o(i.USBEndpointDMADisable) for USBEndpointDMADisable
    usbdma.o(i.uDMAUSBArbSizeSet) refers to udma.o(i.uDMAChannelControlSet) for uDMAChannelControlSet
    usbdma.o(i.uDMAUSBChannelAllocate) refers to usb.o(i.USBEndpointDMAChannel) for USBEndpointDMAChannel
    usbdma.o(i.uDMAUSBChannelAllocate) refers to udma.o(i.uDMAChannelAttributeDisable) for uDMAChannelAttributeDisable
    usbdma.o(i.uDMAUSBChannelAllocate) refers to udma.o(i.uDMAChannelControlSet) for uDMAChannelControlSet
    usbdma.o(i.uDMAUSBChannelAllocate) refers to usb.o(i.USBEndpointDMADisable) for USBEndpointDMADisable
    usbdma.o(i.uDMAUSBChannelDisable) refers to usb.o(i.USBEndpointDMADisable) for USBEndpointDMADisable
    usbdma.o(i.uDMAUSBChannelDisable) refers to udma.o(i.uDMAChannelDisable) for uDMAChannelDisable
    usbdma.o(i.uDMAUSBChannelEnable) refers to interrupt.o(i.IntIsEnabled) for IntIsEnabled
    usbdma.o(i.uDMAUSBChannelEnable) refers to interrupt.o(i.IntDisable) for IntDisable
    usbdma.o(i.uDMAUSBChannelEnable) refers to usb.o(i.USBEndpointDMAEnable) for USBEndpointDMAEnable
    usbdma.o(i.uDMAUSBChannelEnable) refers to udma.o(i.uDMAChannelEnable) for uDMAChannelEnable
    usbdma.o(i.uDMAUSBChannelEnable) refers to interrupt.o(i.IntEnable) for IntEnable
    usbdma.o(i.uDMAUSBChannelRelease) refers to udma.o(i.uDMAChannelAttributeDisable) for uDMAChannelAttributeDisable
    usbdma.o(i.uDMAUSBChannelRelease) refers to usb.o(i.USBEndpointDMADisable) for USBEndpointDMADisable
    usbdma.o(i.uDMAUSBIntStatus) refers to udma.o(i.uDMAChannelModeGet) for uDMAChannelModeGet
    usbdma.o(i.uDMAUSBTransfer) refers to usb.o(i.USBFIFOAddrGet) for USBFIFOAddrGet
    usbdma.o(i.uDMAUSBTransfer) refers to udma.o(i.uDMAChannelTransferSet) for uDMAChannelTransferSet
    usbdma.o(i.uDMAUSBTransfer) refers to usb.o(i.USBEndpointPacketCountSet) for USBEndpointPacketCountSet
    usbdma.o(i.uDMAUSBTransfer) refers to usb.o(i.USBEndpointDMAConfigSet) for USBEndpointDMAConfigSet
    usbdma.o(i.uDMAUSBTransfer) refers to usbdma.o(i.uDMAUSBChannelEnable) for uDMAUSBChannelEnable
    usbdma.o(i.uDMAUSBUnitSizeSet) refers to udma.o(i.uDMAChannelControlSet) for uDMAChannelControlSet
    usbhhub.o(i.HubDriverClose) refers to usbhostenum.o(i.USBHCDHubDeviceDisconnected) for USBHCDHubDeviceDisconnected
    usbhhub.o(i.HubDriverClose) refers to usbhostenum.o(i.USBHCDPipeFree) for USBHCDPipeFree
    usbhhub.o(i.HubDriverClose) refers to usbhhub.o(.bss) for .bss
    usbhhub.o(i.HubDriverOpen) refers to usbdesc.o(i.USBDescGetInterface) for USBDescGetInterface
    usbhhub.o(i.HubDriverOpen) refers to usbdesc.o(i.USBDescGetInterfaceEndpoint) for USBDescGetInterfaceEndpoint
    usbhhub.o(i.HubDriverOpen) refers to usbhostenum.o(i.USBHCDPipeAlloc) for USBHCDPipeAlloc
    usbhhub.o(i.HubDriverOpen) refers to usbhostenum.o(i.USBHCDPipeConfig) for USBHCDPipeConfig
    usbhhub.o(i.HubDriverOpen) refers to usbhostenum.o(i.USBHCDControlTransfer) for USBHCDControlTransfer
    usbhhub.o(i.HubDriverOpen) refers to usbhostenum.o(i.USBHCDPipeFree) for USBHCDPipeFree
    usbhhub.o(i.HubDriverOpen) refers to usbhhub.o(.bss) for .bss
    usbhhub.o(i.HubDriverOpen) refers to usbhhub.o(i.HubIntINCallback) for HubIntINCallback
    usbhhub.o(i.HubIntINCallback) refers to usbhostenum.o(i.USBHCDPipeSchedule) for USBHCDPipeSchedule
    usbhhub.o(i.HubIntINCallback) refers to usbhostenum.o(i.USBHCDPipeDataAck) for USBHCDPipeDataAck
    usbhhub.o(i.HubIntINCallback) refers to usbhhub.o(.bss) for .bss
    usbhhub.o(i.HubIntINCallback) refers to usbhhub.o(.data) for .data
    usbhhub.o(i.USBHHubEnumerationComplete) refers to usbhhub.o(.bss) for .bss
    usbhhub.o(i.USBHHubEnumerationError) refers to usbhhub.o(.bss) for .bss
    usbhhub.o(i.USBHHubInit) refers to usbhhub.o(.data) for .data
    usbhhub.o(i.USBHHubInit) refers to usbhhub.o(.bss) for .bss
    usbhhub.o(i.USBHHubLPMSleep) refers to usbhostenum.o(i.USBHCDLPMSleep) for USBHCDLPMSleep
    usbhhub.o(i.USBHHubLPMStatus) refers to usbhostenum.o(i.USBHCDLPMStatus) for USBHCDLPMStatus
    usbhhub.o(i.USBHHubMain) refers to usbhostenum.o(i.USBHCDControlTransfer) for USBHCDControlTransfer
    usbhhub.o(i.USBHHubMain) refers to usbhostenum.o(i.USBHCDHubDeviceConnected) for USBHCDHubDeviceConnected
    usbhhub.o(i.USBHHubMain) refers to interrupt.o(i.IntDisable) for IntDisable
    usbhhub.o(i.USBHHubMain) refers to interrupt.o(i.IntEnable) for IntEnable
    usbhhub.o(i.USBHHubMain) refers to usbhostenum.o(i.USBHCDHubDeviceDisconnected) for USBHCDHubDeviceDisconnected
    usbhhub.o(i.USBHHubMain) refers to usbhhub.o(.bss) for .bss
    usbhhub.o(i.USBHHubMain) refers to usbhhub.o(.data) for .data
    usbhhub.o(i.USBHHubOpen) refers to usbhhub.o(.bss) for .bss
    usbhhub.o(.constdata) refers to usbhhub.o(i.HubDriverOpen) for HubDriverOpen
    usbhhub.o(.constdata) refers to usbhhub.o(i.HubDriverClose) for HubDriverClose
    usbulpi.o(i.ULPIConfigSet) refers to usb.o(i.USBULPIRegRead) for USBULPIRegRead
    usbulpi.o(i.ULPIConfigSet) refers to usb.o(i.USBULPIRegWrite) for USBULPIRegWrite
    usbulpi.o(i.ULPIPowerTransceiver) refers to usb.o(i.USBULPIRegWrite) for USBULPIRegWrite
    udma.o(i.uDMAIntRegister) refers to interrupt.o(i.IntRegister) for IntRegister
    udma.o(i.uDMAIntRegister) refers to interrupt.o(i.IntEnable) for IntEnable
    udma.o(i.uDMAIntUnregister) refers to interrupt.o(i.IntDisable) for IntDisable
    udma.o(i.uDMAIntUnregister) refers to interrupt.o(i.IntUnregister) for IntUnregister
    entry.o(.ARM.Collect$$$$00000000) refers (Special) to entry10a.o(.ARM.Collect$$$$0000000D) for __rt_final_cpp
    entry.o(.ARM.Collect$$$$00000000) refers (Special) to entry11a.o(.ARM.Collect$$$$0000000F) for __rt_final_exit
    entry.o(.ARM.Collect$$$$00000000) refers (Special) to entry7b.o(.ARM.Collect$$$$00000008) for _main_clock
    entry.o(.ARM.Collect$$$$00000000) refers (Special) to entry8b.o(.ARM.Collect$$$$0000000A) for _main_cpp_init
    entry.o(.ARM.Collect$$$$00000000) refers (Special) to entry9a.o(.ARM.Collect$$$$0000000B) for _main_init
    entry.o(.ARM.Collect$$$$00000000) refers (Special) to entry5.o(.ARM.Collect$$$$00000004) for _main_scatterload
    entry.o(.ARM.Collect$$$$00000000) refers (Special) to entry2.o(.ARM.Collect$$$$00000001) for _main_stk
    dadd.o(.text) refers (Special) to iusefp.o(.text) for __I$use$fp
    dadd.o(.text) refers to llshl.o(.text) for __aeabi_llsl
    dadd.o(.text) refers to llsshr.o(.text) for __aeabi_lasr
    dadd.o(.text) refers to depilogue.o(.text) for _double_epilogue
    dmul.o(.text) refers (Special) to iusefp.o(.text) for __I$use$fp
    dmul.o(.text) refers to depilogue.o(.text) for _double_epilogue
    ddiv.o(.text) refers (Special) to iusefp.o(.text) for __I$use$fp
    ddiv.o(.text) refers to depilogue.o(.text) for _double_round
    dflti.o(.text) refers (Special) to iusefp.o(.text) for __I$use$fp
    dflti.o(.text) refers to depilogue.o(.text) for _double_epilogue
    dfltui.o(.text) refers (Special) to iusefp.o(.text) for __I$use$fp
    dfltui.o(.text) refers to depilogue.o(.text) for _double_epilogue
    dfixi.o(.text) refers (Special) to iusefp.o(.text) for __I$use$fp
    dfixi.o(.text) refers to llushr.o(.text) for __aeabi_llsr
    f2d.o(.text) refers (Special) to iusefp.o(.text) for __I$use$fp
    cdcmple.o(.text) refers (Special) to iusefp.o(.text) for __I$use$fp
    cdrcmple.o(.text) refers (Special) to iusefp.o(.text) for __I$use$fp
    d2f.o(.text) refers (Special) to iusefp.o(.text) for __I$use$fp
    d2f.o(.text) refers to fepilogue.o(.text) for _float_round
    entry2.o(.ARM.Collect$$$$00000001) refers to entry2.o(.ARM.Collect$$$$00002712) for __lit__00000000
    entry2.o(.ARM.Collect$$$$00002712) refers to startup_tm4c123.o(STACK) for __initial_sp
    entry2.o(__vectab_stack_and_reset_area) refers to startup_tm4c123.o(STACK) for __initial_sp
    entry2.o(__vectab_stack_and_reset_area) refers to entry.o(.ARM.Collect$$$$00000000) for __main
    entry5.o(.ARM.Collect$$$$00000004) refers to init.o(.text) for __scatterload
    entry9a.o(.ARM.Collect$$$$0000000B) refers to main.o(i.main) for main
    entry9b.o(.ARM.Collect$$$$0000000C) refers to main.o(i.main) for main
    depilogue.o(.text) refers to llshl.o(.text) for __aeabi_llsl
    depilogue.o(.text) refers to llushr.o(.text) for __aeabi_llsr
    init.o(.text) refers to entry5.o(.ARM.Collect$$$$00000004) for __main_after_scatterload


==============================================================================

Removing Unused input sections from the image.

    Removing main.o(.rev16_text), (4 bytes).
    Removing main.o(.revsh_text), (4 bytes).
    Removing main.o(.rrx_text), (6 bytes).
    Removing ano_scheduler.o(.rev16_text), (4 bytes).
    Removing ano_scheduler.o(.revsh_text), (4 bytes).
    Removing ano_scheduler.o(.rrx_text), (6 bytes).
    Removing ano_parameter.o(.rev16_text), (4 bytes).
    Removing ano_parameter.o(.revsh_text), (4 bytes).
    Removing ano_parameter.o(.rrx_text), (6 bytes).
    Removing ano_flyctrl.o(.rev16_text), (4 bytes).
    Removing ano_flyctrl.o(.revsh_text), (4 bytes).
    Removing ano_flyctrl.o(.rrx_text), (6 bytes).
    Removing ano_dt.o(.rev16_text), (4 bytes).
    Removing ano_dt.o(.revsh_text), (4 bytes).
    Removing ano_dt.o(.rrx_text), (6 bytes).
    Removing ano_dt.o(i.ANO_DT_SendStrVal), (188 bytes).
    Removing ano_rc.o(.rev16_text), (4 bytes).
    Removing ano_rc.o(.revsh_text), (4 bytes).
    Removing ano_rc.o(.rrx_text), (6 bytes).
    Removing ano_led.o(.rev16_text), (4 bytes).
    Removing ano_led.o(.revsh_text), (4 bytes).
    Removing ano_led.o(.rrx_text), (6 bytes).
    Removing ano_usb.o(.rev16_text), (4 bytes).
    Removing ano_usb.o(.revsh_text), (4 bytes).
    Removing ano_usb.o(.rrx_text), (6 bytes).
    Removing ano_usb.o(i.AnoUsbCdcDataAvailable), (16 bytes).
    Removing ano_programctrl_user.o(.rev16_text), (4 bytes).
    Removing ano_programctrl_user.o(.revsh_text), (4 bytes).
    Removing ano_programctrl_user.o(.rrx_text), (6 bytes).
    Removing ano_programctrl_user.o(i.Program_Ctrl_User_Set_Zcmps), (84 bytes).
    Removing ano_of_decofusion.o(.rev16_text), (4 bytes).
    Removing ano_of_decofusion.o(.revsh_text), (4 bytes).
    Removing ano_of_decofusion.o(.rrx_text), (6 bytes).
    Removing ano_opmv_cbtracking_ctrl.o(.rev16_text), (4 bytes).
    Removing ano_opmv_cbtracking_ctrl.o(.revsh_text), (4 bytes).
    Removing ano_opmv_cbtracking_ctrl.o(.rrx_text), (6 bytes).
    Removing ano_opmv_linetracking_ctrl.o(.rev16_text), (4 bytes).
    Removing ano_opmv_linetracking_ctrl.o(.revsh_text), (4 bytes).
    Removing ano_opmv_linetracking_ctrl.o(.rrx_text), (6 bytes).
    Removing ano_opmv_linetracking_ctrl.o(i.ANO_LTracking_Calcu), (132 bytes).
    Removing ano_opmv_linetracking_ctrl.o(i.ANO_LTracking_Decoupling), (372 bytes).
    Removing ano_opmv_linetracking_ctrl.o(i.ANO_LTracking_Task), (80 bytes).
    Removing ano_opmv_ctrl.o(.rev16_text), (4 bytes).
    Removing ano_opmv_ctrl.o(.revsh_text), (4 bytes).
    Removing ano_opmv_ctrl.o(.rrx_text), (6 bytes).
    Removing startup_tm4c123.o(HEAP), (1280 bytes).
    Removing system_tm4c123.o(.rev16_text), (4 bytes).
    Removing system_tm4c123.o(.revsh_text), (4 bytes).
    Removing system_tm4c123.o(.rrx_text), (6 bytes).
    Removing system_tm4c123.o(i.SystemCoreClockUpdate), (196 bytes).
    Removing system_tm4c123.o(i.getOscClk), (244 bytes).
    Removing system_tm4c123.o(.data), (4 bytes).
    Removing drv_bsp.o(.rev16_text), (4 bytes).
    Removing drv_bsp.o(.revsh_text), (4 bytes).
    Removing drv_bsp.o(.rrx_text), (6 bytes).
    Removing drv_bsp.o(i.GetSysRunTimeMs), (12 bytes).
    Removing drv_adc.o(.rev16_text), (4 bytes).
    Removing drv_adc.o(.revsh_text), (4 bytes).
    Removing drv_adc.o(.rrx_text), (6 bytes).
    Removing drv_led.o(.rev16_text), (4 bytes).
    Removing drv_led.o(.revsh_text), (4 bytes).
    Removing drv_led.o(.rrx_text), (6 bytes).
    Removing drv_paramter.o(.rev16_text), (4 bytes).
    Removing drv_paramter.o(.revsh_text), (4 bytes).
    Removing drv_paramter.o(.rrx_text), (6 bytes).
    Removing drv_rcin.o(.rev16_text), (4 bytes).
    Removing drv_rcin.o(.revsh_text), (4 bytes).
    Removing drv_rcin.o(.rrx_text), (6 bytes).
    Removing drv_pwmout.o(.rev16_text), (4 bytes).
    Removing drv_pwmout.o(.revsh_text), (4 bytes).
    Removing drv_pwmout.o(.rrx_text), (6 bytes).
    Removing drv_spi.o(.rev16_text), (4 bytes).
    Removing drv_spi.o(.revsh_text), (4 bytes).
    Removing drv_spi.o(.rrx_text), (6 bytes).
    Removing drv_spi.o(i.Drv_Spi0Transmit), (28 bytes).
    Removing drv_uart.o(.rev16_text), (4 bytes).
    Removing drv_uart.o(.revsh_text), (4 bytes).
    Removing drv_uart.o(.rrx_text), (6 bytes).
    Removing drv_uart.o(i.Drv_Uart3SendBuf), (52 bytes).
    Removing drv_uart.o(i.Drv_Uart5SendBuf), (52 bytes).
    Removing drv_icm20602.o(.rev16_text), (4 bytes).
    Removing drv_icm20602.o(.revsh_text), (4 bytes).
    Removing drv_icm20602.o(.rrx_text), (6 bytes).
    Removing drv_ak8975.o(.rev16_text), (4 bytes).
    Removing drv_ak8975.o(.revsh_text), (4 bytes).
    Removing drv_ak8975.o(.rrx_text), (6 bytes).
    Removing drv_spl06.o(.rev16_text), (4 bytes).
    Removing drv_spl06.o(.revsh_text), (4 bytes).
    Removing drv_spl06.o(.rrx_text), (6 bytes).
    Removing drv_spl06.o(i.spl0601_start_pressure), (12 bytes).
    Removing drv_spl06.o(i.spl0601_start_temperature), (12 bytes).
    Removing drv_gps.o(.rev16_text), (4 bytes).
    Removing drv_gps.o(.revsh_text), (4 bytes).
    Removing drv_gps.o(.rrx_text), (6 bytes).
    Removing ano_of.o(.rev16_text), (4 bytes).
    Removing ano_of.o(.revsh_text), (4 bytes).
    Removing ano_of.o(.rrx_text), (6 bytes).
    Removing ano_uwb.o(.rev16_text), (4 bytes).
    Removing ano_uwb.o(.revsh_text), (4 bytes).
    Removing ano_uwb.o(.rrx_text), (6 bytes).
    Removing ano_uwb.o(i.Ano_UWB_Get_Byte), (280 bytes).
    Removing ano_uwb.o(i.Ano_UWB_Get_Data_Task), (376 bytes).
    Removing ano_uwb.o(.data), (7 bytes).
    Removing drv_heating.o(.rev16_text), (4 bytes).
    Removing drv_heating.o(.revsh_text), (4 bytes).
    Removing drv_heating.o(.rrx_text), (6 bytes).
    Removing drv_openmv.o(.rev16_text), (4 bytes).
    Removing drv_openmv.o(.revsh_text), (4 bytes).
    Removing drv_openmv.o(.rrx_text), (6 bytes).
    Removing drv_up_flow.o(.rev16_text), (4 bytes).
    Removing drv_up_flow.o(.revsh_text), (4 bytes).
    Removing drv_up_flow.o(.rrx_text), (6 bytes).
    Removing drv_laser.o(.rev16_text), (4 bytes).
    Removing drv_laser.o(.revsh_text), (4 bytes).
    Removing drv_laser.o(.rrx_text), (6 bytes).
    Removing ano_fcdata.o(.rev16_text), (4 bytes).
    Removing ano_fcdata.o(.revsh_text), (4 bytes).
    Removing ano_fcdata.o(.rrx_text), (6 bytes).
    Removing ano_filter.o(.rev16_text), (4 bytes).
    Removing ano_filter.o(.revsh_text), (4 bytes).
    Removing ano_filter.o(.rrx_text), (6 bytes).
    Removing ano_filter.o(i.LPF_1), (64 bytes).
    Removing ano_filter.o(i.LPF_1_db), (148 bytes).
    Removing ano_filter.o(i.Moving_Average), (156 bytes).
    Removing ano_filter.o(i.fir_arrange_filter), (156 bytes).
    Removing ano_filter.o(i.limit_filter), (144 bytes).
    Removing ano_filter.o(i.limit_filter_2), (144 bytes).
    Removing ano_filter.o(i.limit_filter_3), (148 bytes).
    Removing ano_filter.o(i.my_hpf_limited), (128 bytes).
    Removing ano_filter.o(i.simple_3d_trans), (252 bytes).
    Removing ano_filter.o(i.steepest_descend), (444 bytes).
    Removing ano_filter.o(i.step_filter), (74 bytes).
    Removing ano_filter.o(i.vec_3dh_transition), (20 bytes).
    Removing ano_filter.o(i.vec_3dh_transition_matrix), (2 bytes).
    Removing ano_filter.o(.data), (12 bytes).
    Removing ano_math.o(.rev16_text), (4 bytes).
    Removing ano_math.o(.revsh_text), (4 bytes).
    Removing ano_math.o(.rrx_text), (6 bytes).
    Removing ano_math.o(i.To_180_degrees_db), (132 bytes).
    Removing ano_math.o(i.fifo), (42 bytes).
    Removing ano_math.o(i.mx_sin), (340 bytes).
    Removing ano_math.o(i.my_HPF), (368 bytes).
    Removing ano_math.o(i.my_atan), (24 bytes).
    Removing ano_math.o(i.my_cos), (152 bytes).
    Removing ano_math.o(i.my_deadzone_2), (48 bytes).
    Removing ano_math.o(i.my_sin), (116 bytes).
    Removing ano_math.o(i.rot_vec_2), (84 bytes).
    Removing ano_math.o(i.vec_3_cross_product_err_sinx), (86 bytes).
    Removing ano_math.o(i.vec_3_dot_product), (38 bytes).
    Removing ano_pid.o(.rev16_text), (4 bytes).
    Removing ano_pid.o(.revsh_text), (4 bytes).
    Removing ano_pid.o(.rrx_text), (6 bytes).
    Removing ano_imu.o(.rev16_text), (4 bytes).
    Removing ano_imu.o(.revsh_text), (4 bytes).
    Removing ano_imu.o(.rrx_text), (6 bytes).
    Removing ano_sensor_basic.o(.rev16_text), (4 bytes).
    Removing ano_sensor_basic.o(.revsh_text), (4 bytes).
    Removing ano_sensor_basic.o(.rrx_text), (6 bytes).
    Removing ano_motioncal.o(.rev16_text), (4 bytes).
    Removing ano_motioncal.o(.revsh_text), (4 bytes).
    Removing ano_motioncal.o(.rrx_text), (6 bytes).
    Removing ano_navigate.o(.rev16_text), (4 bytes).
    Removing ano_navigate.o(.revsh_text), (4 bytes).
    Removing ano_navigate.o(.rrx_text), (6 bytes).
    Removing ano_navigate.o(i.dlon_180), (40 bytes).
    Removing ano_navigate.o(i.dlon_dlat_dx_dy), (176 bytes).
    Removing ano_altctrl.o(.rev16_text), (4 bytes).
    Removing ano_altctrl.o(.revsh_text), (4 bytes).
    Removing ano_altctrl.o(.rrx_text), (6 bytes).
    Removing ano_attctrl.o(.rev16_text), (4 bytes).
    Removing ano_attctrl.o(.revsh_text), (4 bytes).
    Removing ano_attctrl.o(.rrx_text), (6 bytes).
    Removing ano_flightctrl.o(.rev16_text), (4 bytes).
    Removing ano_flightctrl.o(.revsh_text), (4 bytes).
    Removing ano_flightctrl.o(.rrx_text), (6 bytes).
    Removing ano_flightctrl.o(i.one_key_roll), (36 bytes).
    Removing ano_flightdatacal.o(.rev16_text), (4 bytes).
    Removing ano_flightdatacal.o(.revsh_text), (4 bytes).
    Removing ano_flightdatacal.o(.rrx_text), (6 bytes).
    Removing ano_locctrl.o(.rev16_text), (4 bytes).
    Removing ano_locctrl.o(.revsh_text), (4 bytes).
    Removing ano_locctrl.o(.rrx_text), (6 bytes).
    Removing ano_magprocess.o(.rev16_text), (4 bytes).
    Removing ano_magprocess.o(.revsh_text), (4 bytes).
    Removing ano_magprocess.o(.rrx_text), (6 bytes).
    Removing ano_motorctrl.o(.rev16_text), (4 bytes).
    Removing ano_motorctrl.o(.revsh_text), (4 bytes).
    Removing ano_motorctrl.o(.rrx_text), (6 bytes).
    Removing ano_power.o(.rev16_text), (4 bytes).
    Removing ano_power.o(.revsh_text), (4 bytes).
    Removing ano_power.o(.rrx_text), (6 bytes).
    Removing adc.o(i.ADCBusy), (8 bytes).
    Removing adc.o(i.ADCClockConfigGet), (32 bytes).
    Removing adc.o(i.ADCClockConfigSet), (28 bytes).
    Removing adc.o(i.ADCComparatorConfigure), (10 bytes).
    Removing adc.o(i.ADCComparatorIntClear), (4 bytes).
    Removing adc.o(i.ADCComparatorIntDisable), (18 bytes).
    Removing adc.o(i.ADCComparatorIntEnable), (16 bytes).
    Removing adc.o(i.ADCComparatorIntStatus), (4 bytes).
    Removing adc.o(i.ADCComparatorRegionSet), (14 bytes).
    Removing adc.o(i.ADCComparatorReset), (40 bytes).
    Removing adc.o(i.ADCHardwareOversampleConfigure), (18 bytes).
    Removing adc.o(i.ADCIntClear), (10 bytes).
    Removing adc.o(i.ADCIntClearEx), (4 bytes).
    Removing adc.o(i.ADCIntDisable), (16 bytes).
    Removing adc.o(i.ADCIntDisableEx), (10 bytes).
    Removing adc.o(i.ADCIntEnable), (16 bytes).
    Removing adc.o(i.ADCIntEnableEx), (8 bytes).
    Removing adc.o(i.ADCIntStatus), (52 bytes).
    Removing adc.o(i.ADCIntStatusEx), (22 bytes).
    Removing adc.o(i.ADCIntUnregister), (108 bytes).
    Removing adc.o(i.ADCPhaseDelayGet), (4 bytes).
    Removing adc.o(i.ADCPhaseDelaySet), (4 bytes).
    Removing adc.o(i.ADCProcessorTrigger), (26 bytes).
    Removing adc.o(i.ADCReferenceGet), (8 bytes).
    Removing adc.o(i.ADCReferenceSet), (12 bytes).
    Removing adc.o(i.ADCSequenceConfigure), (96 bytes).
    Removing adc.o(i.ADCSequenceDMADisable), (18 bytes).
    Removing adc.o(i.ADCSequenceDMAEnable), (16 bytes).
    Removing adc.o(i.ADCSequenceDataGet), (36 bytes).
    Removing adc.o(i.ADCSequenceDisable), (16 bytes).
    Removing adc.o(i.ADCSequenceEnable), (14 bytes).
    Removing adc.o(i.ADCSequenceOverflow), (12 bytes).
    Removing adc.o(i.ADCSequenceOverflowClear), (10 bytes).
    Removing adc.o(i.ADCSequenceStepConfigure), (154 bytes).
    Removing adc.o(i.ADCSequenceUnderflow), (12 bytes).
    Removing adc.o(i.ADCSequenceUnderflowClear), (10 bytes).
    Removing adc.o(i.ADCSoftwareOversampleConfigure), (44 bytes).
    Removing adc.o(i.ADCSoftwareOversampleDataGet), (88 bytes).
    Removing adc.o(i.ADCSoftwareOversampleStepConfigure), (168 bytes).
    Removing adc.o(.data), (6 bytes).
    Removing gpio.o(i.GPIOADCTriggerDisable), (14 bytes).
    Removing gpio.o(i.GPIOADCTriggerEnable), (12 bytes).
    Removing gpio.o(i.GPIODMATriggerDisable), (14 bytes).
    Removing gpio.o(i.GPIODMATriggerEnable), (12 bytes).
    Removing gpio.o(i.GPIODirModeGet), (34 bytes).
    Removing gpio.o(i.GPIODirModeSet), (40 bytes).
    Removing gpio.o(i.GPIOIntDisable), (14 bytes).
    Removing gpio.o(i.GPIOIntRegisterPin), (30 bytes).
    Removing gpio.o(i.GPIOIntStatus), (14 bytes).
    Removing gpio.o(i.GPIOIntTypeGet), (68 bytes).
    Removing gpio.o(i.GPIOIntTypeSet), (80 bytes).
    Removing gpio.o(i.GPIOIntUnregister), (22 bytes).
    Removing gpio.o(i.GPIOIntUnregisterPin), (26 bytes).
    Removing gpio.o(i.GPIOPadConfigGet), (204 bytes).
    Removing gpio.o(i.GPIOPadConfigSet), (312 bytes).
    Removing gpio.o(i.GPIOPinConfigure), (68 bytes).
    Removing gpio.o(i.GPIOPinRead), (6 bytes).
    Removing gpio.o(i.GPIOPinTypeADC), (28 bytes).
    Removing gpio.o(i.GPIOPinTypeCAN), (28 bytes).
    Removing gpio.o(i.GPIOPinTypeComparator), (28 bytes).
    Removing gpio.o(i.GPIOPinTypeComparatorOutput), (28 bytes).
    Removing gpio.o(i.GPIOPinTypeDIVSCLK), (28 bytes).
    Removing gpio.o(i.GPIOPinTypeEPI), (28 bytes).
    Removing gpio.o(i.GPIOPinTypeEthernetLED), (28 bytes).
    Removing gpio.o(i.GPIOPinTypeEthernetMII), (28 bytes).
    Removing gpio.o(i.GPIOPinTypeGPIOInput), (28 bytes).
    Removing gpio.o(i.GPIOPinTypeGPIOOutput), (28 bytes).
    Removing gpio.o(i.GPIOPinTypeGPIOOutputOD), (28 bytes).
    Removing gpio.o(i.GPIOPinTypeHibernateRTCCLK), (28 bytes).
    Removing gpio.o(i.GPIOPinTypeI2C), (28 bytes).
    Removing gpio.o(i.GPIOPinTypeI2CSCL), (28 bytes).
    Removing gpio.o(i.GPIOPinTypeLCD), (28 bytes).
    Removing gpio.o(i.GPIOPinTypeOneWire), (28 bytes).
    Removing gpio.o(i.GPIOPinTypePWM), (28 bytes).
    Removing gpio.o(i.GPIOPinTypeQEI), (28 bytes).
    Removing gpio.o(i.GPIOPinTypeSSI), (28 bytes).
    Removing gpio.o(i.GPIOPinTypeTimer), (28 bytes).
    Removing gpio.o(i.GPIOPinTypeTrace), (28 bytes).
    Removing gpio.o(i.GPIOPinTypeUART), (28 bytes).
    Removing gpio.o(i.GPIOPinTypeUSBAnalog), (28 bytes).
    Removing gpio.o(i.GPIOPinTypeUSBDigital), (28 bytes).
    Removing gpio.o(i.GPIOPinTypeWakeHigh), (30 bytes).
    Removing gpio.o(i.GPIOPinTypeWakeLow), (30 bytes).
    Removing gpio.o(i.GPIOPinWakeStatus), (6 bytes).
    Removing gpio.o(i.GPIOPinWrite), (6 bytes).
    Removing sysctl.o(.emb_text), (6 bytes).
    Removing sysctl.o(i.SysCtlAltClkConfig), (12 bytes).
    Removing sysctl.o(i.SysCtlClockFreqSet), (740 bytes).
    Removing sysctl.o(i.SysCtlClockOutConfig), (20 bytes).
    Removing sysctl.o(i.SysCtlClockSet), (288 bytes).
    Removing sysctl.o(i.SysCtlDeepSleep), (32 bytes).
    Removing sysctl.o(i.SysCtlDeepSleepClockConfigSet), (112 bytes).
    Removing sysctl.o(i.SysCtlDeepSleepClockSet), (12 bytes).
    Removing sysctl.o(i.SysCtlDeepSleepPowerSet), (12 bytes).
    Removing sysctl.o(i.SysCtlFlashSectorSizeGet), (56 bytes).
    Removing sysctl.o(i.SysCtlFlashSizeGet), (56 bytes).
    Removing sysctl.o(i.SysCtlGPIOAHBDisable), (28 bytes).
    Removing sysctl.o(i.SysCtlGPIOAHBEnable), (24 bytes).
    Removing sysctl.o(i.SysCtlIntClear), (12 bytes).
    Removing sysctl.o(i.SysCtlIntDisable), (16 bytes).
    Removing sysctl.o(i.SysCtlIntEnable), (16 bytes).
    Removing sysctl.o(i.SysCtlIntRegister), (20 bytes).
    Removing sysctl.o(i.SysCtlIntStatus), (16 bytes).
    Removing sysctl.o(i.SysCtlIntUnregister), (18 bytes).
    Removing sysctl.o(i.SysCtlLDODeepSleepGet), (12 bytes).
    Removing sysctl.o(i.SysCtlLDODeepSleepSet), (12 bytes).
    Removing sysctl.o(i.SysCtlLDOSleepGet), (12 bytes).
    Removing sysctl.o(i.SysCtlLDOSleepSet), (12 bytes).
    Removing sysctl.o(i.SysCtlMOSCConfigSet), (12 bytes).
    Removing sysctl.o(i.SysCtlNMIClear), (16 bytes).
    Removing sysctl.o(i.SysCtlNMIStatus), (12 bytes).
    Removing sysctl.o(i.SysCtlPIOSCCalibrate), (76 bytes).
    Removing sysctl.o(i.SysCtlPWMClockGet), (24 bytes).
    Removing sysctl.o(i.SysCtlPWMClockSet), (20 bytes).
    Removing sysctl.o(i.SysCtlPeripheralClockGating), (68 bytes).
    Removing sysctl.o(i.SysCtlPeripheralDeepSleepDisable), (40 bytes).
    Removing sysctl.o(i.SysCtlPeripheralDeepSleepEnable), (40 bytes).
    Removing sysctl.o(i.SysCtlPeripheralDisable), (40 bytes).
    Removing sysctl.o(i.SysCtlPeripheralPowerOff), (40 bytes).
    Removing sysctl.o(i.SysCtlPeripheralPowerOn), (40 bytes).
    Removing sysctl.o(i.SysCtlPeripheralPresent), (44 bytes).
    Removing sysctl.o(i.SysCtlPeripheralReady), (44 bytes).
    Removing sysctl.o(i.SysCtlPeripheralSleepDisable), (40 bytes).
    Removing sysctl.o(i.SysCtlPeripheralSleepEnable), (40 bytes).
    Removing sysctl.o(i.SysCtlReset), (16 bytes).
    Removing sysctl.o(i.SysCtlResetBehaviorGet), (12 bytes).
    Removing sysctl.o(i.SysCtlResetBehaviorSet), (12 bytes).
    Removing sysctl.o(i.SysCtlResetCauseClear), (16 bytes).
    Removing sysctl.o(i.SysCtlResetCauseGet), (12 bytes).
    Removing sysctl.o(i.SysCtlSRAMSizeGet), (16 bytes).
    Removing sysctl.o(i.SysCtlSleep), (4 bytes).
    Removing sysctl.o(i.SysCtlSleepPowerSet), (12 bytes).
    Removing sysctl.o(i.SysCtlUSBPLLDisable), (16 bytes).
    Removing sysctl.o(i.SysCtlVCOGet), (120 bytes).
    Removing sysctl.o(i.SysCtlVoltageEventClear), (16 bytes).
    Removing sysctl.o(i.SysCtlVoltageEventConfig), (12 bytes).
    Removing sysctl.o(i.SysCtlVoltageEventStatus), (12 bytes).
    Removing timer.o(i.TimerADCEventGet), (4 bytes).
    Removing timer.o(i.TimerADCEventSet), (4 bytes).
    Removing timer.o(i.TimerClockSourceGet), (6 bytes).
    Removing timer.o(i.TimerClockSourceSet), (6 bytes).
    Removing timer.o(i.TimerConfigure), (96 bytes).
    Removing timer.o(i.TimerControlEvent), (18 bytes).
    Removing timer.o(i.TimerControlLevel), (22 bytes).
    Removing timer.o(i.TimerControlStall), (22 bytes).
    Removing timer.o(i.TimerControlTrigger), (80 bytes).
    Removing timer.o(i.TimerControlWaitOnTrigger), (48 bytes).
    Removing timer.o(i.TimerDMAEventGet), (4 bytes).
    Removing timer.o(i.TimerDMAEventSet), (4 bytes).
    Removing timer.o(i.TimerDisable), (16 bytes).
    Removing timer.o(i.TimerEnable), (14 bytes).
    Removing timer.o(i.TimerIntClear), (4 bytes).
    Removing timer.o(i.TimerIntDisable), (10 bytes).
    Removing timer.o(i.TimerIntEnable), (8 bytes).
    Removing timer.o(i.TimerIntStatus), (10 bytes).
    Removing timer.o(i.TimerIntUnregister), (104 bytes).
    Removing timer.o(i.TimerLoadGet), (10 bytes).
    Removing timer.o(i.TimerLoadGet64), (14 bytes).
    Removing timer.o(i.TimerLoadSet), (18 bytes).
    Removing timer.o(i.TimerLoadSet64), (6 bytes).
    Removing timer.o(i.TimerMatchGet), (10 bytes).
    Removing timer.o(i.TimerMatchGet64), (14 bytes).
    Removing timer.o(i.TimerMatchSet), (18 bytes).
    Removing timer.o(i.TimerMatchSet64), (6 bytes).
    Removing timer.o(i.TimerPrescaleGet), (10 bytes).
    Removing timer.o(i.TimerPrescaleMatchGet), (10 bytes).
    Removing timer.o(i.TimerPrescaleMatchSet), (18 bytes).
    Removing timer.o(i.TimerPrescaleSet), (18 bytes).
    Removing timer.o(i.TimerRTCDisable), (10 bytes).
    Removing timer.o(i.TimerRTCEnable), (10 bytes).
    Removing timer.o(i.TimerSynchronize), (4 bytes).
    Removing timer.o(i.TimerUpdateMode), (42 bytes).
    Removing timer.o(i.TimerValueGet), (10 bytes).
    Removing timer.o(i.TimerValueGet64), (14 bytes).
    Removing uart.o(i.UART9BitAddrSend), (38 bytes).
    Removing uart.o(i.UART9BitAddrSet), (10 bytes).
    Removing uart.o(i.UART9BitDisable), (14 bytes).
    Removing uart.o(i.UART9BitEnable), (14 bytes).
    Removing uart.o(i.UARTBreakCtl), (18 bytes).
    Removing uart.o(i.UARTBusy), (8 bytes).
    Removing uart.o(i.UARTCharGet), (12 bytes).
    Removing uart.o(i.UARTCharGetNonBlocking), (16 bytes).
    Removing uart.o(i.UARTCharPut), (12 bytes).
    Removing uart.o(i.UARTCharPutNonBlocking), (16 bytes).
    Removing uart.o(i.UARTCharsAvail), (10 bytes).
    Removing uart.o(i.UARTClockSourceGet), (6 bytes).
    Removing uart.o(i.UARTClockSourceSet), (6 bytes).
    Removing uart.o(i.UARTConfigGetExpClk), (46 bytes).
    Removing uart.o(i.UARTConfigSetExpClk), (110 bytes).
    Removing uart.o(i.UARTDMADisable), (10 bytes).
    Removing uart.o(i.UARTDMAEnable), (8 bytes).
    Removing uart.o(i.UARTDisable), (30 bytes).
    Removing uart.o(i.UARTDisableSIR), (10 bytes).
    Removing uart.o(i.UARTEnable), (20 bytes).
    Removing uart.o(i.UARTEnableSIR), (18 bytes).
    Removing uart.o(i.UARTFIFODisable), (10 bytes).
    Removing uart.o(i.UARTFIFOEnable), (10 bytes).
    Removing uart.o(i.UARTFIFOLevelGet), (16 bytes).
    Removing uart.o(i.UARTFIFOLevelSet), (6 bytes).
    Removing uart.o(i.UARTFlowControlGet), (8 bytes).
    Removing uart.o(i.UARTFlowControlSet), (12 bytes).
    Removing uart.o(i.UARTIntClear), (4 bytes).
    Removing uart.o(i.UARTIntDisable), (10 bytes).
    Removing uart.o(i.UARTIntEnable), (8 bytes).
    Removing uart.o(i.UARTIntStatus), (10 bytes).
    Removing uart.o(i.UARTIntUnregister), (88 bytes).
    Removing uart.o(i.UARTLoopbackEnable), (10 bytes).
    Removing uart.o(i.UARTModemControlClear), (14 bytes).
    Removing uart.o(i.UARTModemControlGet), (8 bytes).
    Removing uart.o(i.UARTModemControlSet), (12 bytes).
    Removing uart.o(i.UARTModemStatusGet), (10 bytes).
    Removing uart.o(i.UARTParityModeGet), (8 bytes).
    Removing uart.o(i.UARTParityModeSet), (12 bytes).
    Removing uart.o(i.UARTRxErrorClear), (6 bytes).
    Removing uart.o(i.UARTRxErrorGet), (8 bytes).
    Removing uart.o(i.UARTSmartCardDisable), (10 bytes).
    Removing uart.o(i.UARTSmartCardEnable), (22 bytes).
    Removing uart.o(i.UARTSpaceAvail), (10 bytes).
    Removing uart.o(i.UARTTxIntModeGet), (8 bytes).
    Removing uart.o(i.UARTTxIntModeSet), (12 bytes).
    Removing usb.o(i.USBClockDisable), (8 bytes).
    Removing usb.o(i.USBDMAChannelAddressGet), (10 bytes).
    Removing usb.o(i.USBDMAChannelCountGet), (10 bytes).
    Removing usb.o(i.USBDMAChannelStatusClear), (20 bytes).
    Removing usb.o(i.USBDMANumChannels), (8 bytes).
    Removing usb.o(i.USBDevAddrGet), (4 bytes).
    Removing usb.o(i.USBDevEndpointConfigGet), (144 bytes).
    Removing usb.o(i.USBDevLPMRemoteWake), (14 bytes).
    Removing usb.o(i.USBDevSpeedGet), (14 bytes).
    Removing usb.o(i.USBEndpointDataToggleClear), (36 bytes).
    Removing usb.o(i.USBFIFOConfigGet), (80 bytes).
    Removing usb.o(i.USBFIFOFlush), (80 bytes).
    Removing usb.o(i.USBFrameNumberGet), (4 bytes).
    Removing usb.o(i.USBHighSpeed), (18 bytes).
    Removing usb.o(i.USBHostAddrGet), (20 bytes).
    Removing usb.o(i.USBHostAddrSet), (22 bytes).
    Removing usb.o(i.USBHostEndpointConfig), (242 bytes).
    Removing usb.o(i.USBHostEndpointDataAck), (32 bytes).
    Removing usb.o(i.USBHostEndpointDataToggle), (112 bytes).
    Removing usb.o(i.USBHostEndpointPing), (28 bytes).
    Removing usb.o(i.USBHostEndpointSpeed), (84 bytes).
    Removing usb.o(i.USBHostEndpointStatusClear), (40 bytes).
    Removing usb.o(i.USBHostHubAddrGet), (20 bytes).
    Removing usb.o(i.USBHostHubAddrSet), (70 bytes).
    Removing usb.o(i.USBHostLPMConfig), (24 bytes).
    Removing usb.o(i.USBHostLPMResume), (14 bytes).
    Removing usb.o(i.USBHostLPMSend), (36 bytes).
    Removing usb.o(i.USBHostMode), (8 bytes).
    Removing usb.o(i.USBHostPwrConfig), (26 bytes).
    Removing usb.o(i.USBHostPwrDisable), (14 bytes).
    Removing usb.o(i.USBHostPwrEnable), (14 bytes).
    Removing usb.o(i.USBHostPwrFaultDisable), (14 bytes).
    Removing usb.o(i.USBHostPwrFaultEnable), (14 bytes).
    Removing usb.o(i.USBHostRequestIN), (18 bytes).
    Removing usb.o(i.USBHostRequestINClear), (22 bytes).
    Removing usb.o(i.USBHostRequestStatus), (8 bytes).
    Removing usb.o(i.USBHostReset), (18 bytes).
    Removing usb.o(i.USBHostSpeedGet), (44 bytes).
    Removing usb.o(i.USBHostSuspend), (10 bytes).
    Removing usb.o(i.USBIntDisableControl), (44 bytes).
    Removing usb.o(i.USBIntDisableEndpoint), (24 bytes).
    Removing usb.o(i.USBIntUnregister), (68 bytes).
    Removing usb.o(i.USBLPMEndpointGet), (10 bytes).
    Removing usb.o(i.USBLPMIntDisable), (14 bytes).
    Removing usb.o(i.USBLPMLinkStateGet), (10 bytes).
    Removing usb.o(i.USBLPMRemoteWakeEnabled), (14 bytes).
    Removing usb.o(i.USBModeConfig), (6 bytes).
    Removing usb.o(i.USBModeGet), (10 bytes).
    Removing usb.o(i.USBNumEndpointsGet), (10 bytes).
    Removing usb.o(i.USBOTGSessionRequest), (22 bytes).
    Removing usb.o(i.USBPHYPowerOff), (10 bytes).
    Removing usb.o(i.USBPHYPowerOn), (10 bytes).
    Removing usb.o(i.USBULPIConfig), (6 bytes).
    Removing usbbuffer.o(i.USBBufferCallbackDataSet), (8 bytes).
    Removing usbbuffer.o(i.USBBufferDataAvailable), (6 bytes).
    Removing usbbuffer.o(i.USBBufferDataRemoved), (12 bytes).
    Removing usbbuffer.o(i.USBBufferDataWritten), (24 bytes).
    Removing usbbuffer.o(i.USBBufferInfoGet), (18 bytes).
    Removing usbbuffer.o(i.USBBufferSpaceAvailable), (6 bytes).
    Removing usbbuffer.o(i.USBBufferZeroLengthPacketInsert), (22 bytes).
    Removing usbdcdc.o(i.ProcessNotificationToHost), (60 bytes).
    Removing usbdcdc.o(i.USBDCDCPowerStatusSet), (6 bytes).
    Removing usbdcdc.o(i.USBDCDCRemoteWakeupRequest), (6 bytes).
    Removing usbdcdc.o(i.USBDCDCSerialStateChange), (50 bytes).
    Removing usbdcdc.o(i.USBDCDCSetControlCBData), (8 bytes).
    Removing usbdcdc.o(i.USBDCDCSetRxCBData), (8 bytes).
    Removing usbdcdc.o(i.USBDCDCSetTxCBData), (8 bytes).
    Removing usbdcdc.o(i.USBDCDCTerm), (18 bytes).
    Removing usbmode.o(i.OTGDeviceDisconnect), (28 bytes).
    Removing usbmode.o(i.USB0DualModeIntHandler), (76 bytes).
    Removing usbmode.o(i.USB0OTGModeIntHandler), (204 bytes).
    Removing usbmode.o(i.USBDualModeInit), (116 bytes).
    Removing usbmode.o(i.USBDualModeTerm), (44 bytes).
    Removing usbmode.o(i.USBOTGFeatureSet), (44 bytes).
    Removing usbmode.o(i.USBOTGMain), (136 bytes).
    Removing usbmode.o(i.USBOTGModeInit), (184 bytes).
    Removing usbmode.o(i.USBOTGModeTerm), (52 bytes).
    Removing usbmode.o(i.USBOTGPollRate), (12 bytes).
    Removing usbmode.o(i.USBOTGSetMode), (136 bytes).
    Removing interrupt.o(i.IntPendClear), (68 bytes).
    Removing interrupt.o(i.IntPendSet), (84 bytes).
    Removing interrupt.o(i.IntPriorityGet), (28 bytes).
    Removing interrupt.o(i.IntPriorityGroupingGet), (36 bytes).
    Removing interrupt.o(i.IntPriorityGroupingSet), (28 bytes).
    Removing interrupt.o(i.IntPriorityMaskGet), (4 bytes).
    Removing interrupt.o(i.IntPriorityMaskSet), (4 bytes).
    Removing interrupt.o(i.IntPrioritySet), (40 bytes).
    Removing interrupt.o(i.IntTrigger), (12 bytes).
    Removing interrupt.o(i.IntUnregister), (20 bytes).
    Removing interrupt.o(i._IntDefaultHandler), (2 bytes).
    Removing usbdenum.o(i.USBDCDFeatureSet), (128 bytes).
    Removing usbdenum.o(i.USBDCDPowerStatusSet), (28 bytes).
    Removing usbdenum.o(i.USBDCDRemoteWakeLPM), (32 bytes).
    Removing usbdenum.o(i.USBDCDRemoteWakeupRequest), (56 bytes).
    Removing usbdenum.o(i.USBDCDSetDefaultConfiguration), (12 bytes).
    Removing usbdenum.o(i.USBDCDTerm), (92 bytes).
    Removing usbdenum.o(i.USBDeviceEnumResetHandler), (64 bytes).
    Removing usbhostenum.o(i.ConfigDescAlloc), (112 bytes).
    Removing usbhostenum.o(i.ConfigDescFree), (64 bytes).
    Removing usbhostenum.o(i.InternalUSBHCDSendEvent), (56 bytes).
    Removing usbhostenum.o(i.ProcessUSBDeviceStateMachine), (984 bytes).
    Removing usbhostenum.o(i.USB0HostIntHandler), (24 bytes).
    Removing usbhostenum.o(i.USBHCDControlTransfer), (628 bytes).
    Removing usbhostenum.o(i.USBHCDDevAddress), (40 bytes).
    Removing usbhostenum.o(i.USBHCDDevClass), (60 bytes).
    Removing usbhostenum.o(i.USBHCDDevHubPort), (40 bytes).
    Removing usbhostenum.o(i.USBHCDDevProtocol), (60 bytes).
    Removing usbhostenum.o(i.USBHCDDevSubClass), (60 bytes).
    Removing usbhostenum.o(i.USBHCDDeviceDisconnected), (160 bytes).
    Removing usbhostenum.o(i.USBHCDEventDisable), (88 bytes).
    Removing usbhostenum.o(i.USBHCDEventEnable), (88 bytes).
    Removing usbhostenum.o(i.USBHCDFeatureSet), (140 bytes).
    Removing usbhostenum.o(i.USBHCDHubDeviceConnected), (100 bytes).
    Removing usbhostenum.o(i.USBHCDHubDeviceDisconnected), (16 bytes).
    Removing usbhostenum.o(i.USBHCDInit), (256 bytes).
    Removing usbhostenum.o(i.USBHCDInitInternal), (404 bytes).
    Removing usbhostenum.o(i.USBHCDLPMResume), (12 bytes).
    Removing usbhostenum.o(i.USBHCDLPMSleep), (88 bytes).
    Removing usbhostenum.o(i.USBHCDLPMStatus), (26 bytes).
    Removing usbhostenum.o(i.USBHCDMain), (248 bytes).
    Removing usbhostenum.o(i.USBHCDPipeAlloc), (12 bytes).
    Removing usbhostenum.o(i.USBHCDPipeAllocSize), (756 bytes).
    Removing usbhostenum.o(i.USBHCDPipeConfig), (236 bytes).
    Removing usbhostenum.o(i.USBHCDPipeDataAck), (48 bytes).
    Removing usbhostenum.o(i.USBHCDPipeFree), (292 bytes).
    Removing usbhostenum.o(i.USBHCDPipeRead), (488 bytes).
    Removing usbhostenum.o(i.USBHCDPipeReadNonBlocking), (68 bytes).
    Removing usbhostenum.o(i.USBHCDPipeSchedule), (180 bytes).
    Removing usbhostenum.o(i.USBHCDPipeStatus), (4 bytes).
    Removing usbhostenum.o(i.USBHCDPipeTransferSizeGet), (28 bytes).
    Removing usbhostenum.o(i.USBHCDPipeWrite), (444 bytes).
    Removing usbhostenum.o(i.USBHCDPowerAutomatic), (20 bytes).
    Removing usbhostenum.o(i.USBHCDPowerConfigGet), (12 bytes).
    Removing usbhostenum.o(i.USBHCDPowerConfigInit), (12 bytes).
    Removing usbhostenum.o(i.USBHCDPowerConfigSet), (84 bytes).
    Removing usbhostenum.o(i.USBHCDRegisterDrivers), (16 bytes).
    Removing usbhostenum.o(i.USBHCDReset), (60 bytes).
    Removing usbhostenum.o(i.USBHCDResume), (44 bytes).
    Removing usbhostenum.o(i.USBHCDSetAddress), (84 bytes).
    Removing usbhostenum.o(i.USBHCDSetConfig), (48 bytes).
    Removing usbhostenum.o(i.USBHCDSetInterface), (50 bytes).
    Removing usbhostenum.o(i.USBHCDStringDescriptorGet), (58 bytes).
    Removing usbhostenum.o(i.USBHCDSuspend), (12 bytes).
    Removing usbhostenum.o(i.USBHCDTerm), (136 bytes).
    Removing usbhostenum.o(i.USBHostCheckPipes), (116 bytes).
    Removing usbhostenum.o(i.USBHostIntHandlerInternal), (1188 bytes).
    Removing usbhostenum.o(.bss), (1812 bytes).
    Removing usbhostenum.o(.data), (32 bytes).
    Removing usbringbuf.o(i.USBRingBufEmpty), (14 bytes).
    Removing usbringbuf.o(i.USBRingBufFull), (26 bytes).
    Removing usbringbuf.o(i.USBRingBufReadOne), (54 bytes).
    Removing usbringbuf.o(i.USBRingBufSize), (4 bytes).
    Removing usbringbuf.o(i.USBRingBufWriteOne), (56 bytes).
    Removing usbtick.o(i.InternalUSBTickReset), (12 bytes).
    Removing usbdcdesc.o(i.USBDCDConfigGetNumAlternateInterfaces), (88 bytes).
    Removing usbdesc.o(i.USBDescGetInterface), (122 bytes).
    Removing usbdesc.o(i.USBDescGetInterfaceEndpoint), (66 bytes).
    Removing usbdesc.o(i.USBDescGetNumAlternateInterfaces), (42 bytes).
    Removing usbdma.o(i.USBLibDMAAddrGet), (8 bytes).
    Removing usbdma.o(i.USBLibDMASizeGet), (8 bytes).
    Removing usbhhub.o(i.HubDriverClose), (132 bytes).
    Removing usbhhub.o(i.HubDriverOpen), (400 bytes).
    Removing usbhhub.o(i.HubIntINCallback), (88 bytes).
    Removing usbhhub.o(i.USBHHubClose), (8 bytes).
    Removing usbhhub.o(i.USBHHubEnumerationComplete), (28 bytes).
    Removing usbhhub.o(i.USBHHubEnumerationError), (28 bytes).
    Removing usbhhub.o(i.USBHHubInit), (68 bytes).
    Removing usbhhub.o(i.USBHHubLPMSleep), (6 bytes).
    Removing usbhhub.o(i.USBHHubLPMStatus), (6 bytes).
    Removing usbhhub.o(i.USBHHubMain), (888 bytes).
    Removing usbhhub.o(i.USBHHubOpen), (20 bytes).
    Removing usbhhub.o(.bss), (156 bytes).
    Removing usbhhub.o(.constdata), (16 bytes).
    Removing usbhhub.o(.data), (8 bytes).
    Removing usbulpi.o(i.ULPIPowerTransceiver), (18 bytes).
    Removing udma.o(i.uDMAChannelAssign), (44 bytes).
    Removing udma.o(i.uDMAChannelAttributeEnable), (72 bytes).
    Removing udma.o(i.uDMAChannelAttributeGet), (64 bytes).
    Removing udma.o(i.uDMAChannelIsEnabled), (28 bytes).
    Removing udma.o(i.uDMAChannelRequest), (20 bytes).
    Removing udma.o(i.uDMAChannelScatterGatherSet), (84 bytes).
    Removing udma.o(i.uDMAChannelSelectDefault), (16 bytes).
    Removing udma.o(i.uDMAChannelSelectSecondary), (16 bytes).
    Removing udma.o(i.uDMAChannelSizeGet), (32 bytes).
    Removing udma.o(i.uDMAControlAlternateBaseGet), (12 bytes).
    Removing udma.o(i.uDMAControlBaseGet), (12 bytes).
    Removing udma.o(i.uDMAControlBaseSet), (12 bytes).
    Removing udma.o(i.uDMADisable), (12 bytes).
    Removing udma.o(i.uDMAEnable), (12 bytes).
    Removing udma.o(i.uDMAErrorStatusClear), (12 bytes).
    Removing udma.o(i.uDMAErrorStatusGet), (12 bytes).
    Removing udma.o(i.uDMAIntClear), (12 bytes).
    Removing udma.o(i.uDMAIntRegister), (18 bytes).
    Removing udma.o(i.uDMAIntStatus), (12 bytes).
    Removing udma.o(i.uDMAIntUnregister), (18 bytes).
    Removing cdcmple.o(.text), (48 bytes).
    Removing cdrcmple.o(.text), (48 bytes).

608 unused section(s) (total 31253 bytes) removed from the image.

==============================================================================

Image Symbol Table

    Local Symbols

    Symbol Name                              Value     Ov Type        Size  Object(Section)

    RESET                                    0x00000000   Section      620  startup_tm4c123.o(RESET)
    ../clib/../cmprslib/zerorunl2.c          0x00000000   Number         0  __dczerorl2.o ABSOLUTE
    ../clib/microlib/init/entry.s            0x00000000   Number         0  entry5.o ABSOLUTE
    ../clib/microlib/init/entry.s            0x00000000   Number         0  entry9b.o ABSOLUTE
    ../clib/microlib/init/entry.s            0x00000000   Number         0  entry10a.o ABSOLUTE
    ../clib/microlib/init/entry.s            0x00000000   Number         0  entry2.o ABSOLUTE
    ../clib/microlib/init/entry.s            0x00000000   Number         0  entry10b.o ABSOLUTE
    ../clib/microlib/init/entry.s            0x00000000   Number         0  entry11a.o ABSOLUTE
    ../clib/microlib/init/entry.s            0x00000000   Number         0  entry7a.o ABSOLUTE
    ../clib/microlib/init/entry.s            0x00000000   Number         0  entry7b.o ABSOLUTE
    ../clib/microlib/init/entry.s            0x00000000   Number         0  entry11b.o ABSOLUTE
    ../clib/microlib/init/entry.s            0x00000000   Number         0  entry8a.o ABSOLUTE
    ../clib/microlib/init/entry.s            0x00000000   Number         0  entry8b.o ABSOLUTE
    ../clib/microlib/init/entry.s            0x00000000   Number         0  entry9a.o ABSOLUTE
    ../clib/microlib/init/entry.s            0x00000000   Number         0  entry.o ABSOLUTE
    ../clib/microlib/longlong.c              0x00000000   Number         0  llsshr.o ABSOLUTE
    ../clib/microlib/longlong.c              0x00000000   Number         0  llushr.o ABSOLUTE
    ../clib/microlib/longlong.c              0x00000000   Number         0  llshl.o ABSOLUTE
    ../clib/microlib/string/memcpy.c         0x00000000   Number         0  memcpyb.o ABSOLUTE
    ../clib/microlib/string/memcpy.c         0x00000000   Number         0  memcpya.o ABSOLUTE
    ../clib/microlib/stubs.s                 0x00000000   Number         0  iusefp.o ABSOLUTE
    ../fplib/microlib/d2f.c                  0x00000000   Number         0  d2f.o ABSOLUTE
    ../fplib/microlib/f2d.c                  0x00000000   Number         0  f2d.o ABSOLUTE
    ../fplib/microlib/fpadd.c                0x00000000   Number         0  dadd.o ABSOLUTE
    ../fplib/microlib/fpdiv.c                0x00000000   Number         0  ddiv.o ABSOLUTE
    ../fplib/microlib/fpepilogue.c           0x00000000   Number         0  fepilogue.o ABSOLUTE
    ../fplib/microlib/fpepilogue.c           0x00000000   Number         0  depilogue.o ABSOLUTE
    ../fplib/microlib/fpfix.c                0x00000000   Number         0  dfixi.o ABSOLUTE
    ../fplib/microlib/fpflt.c                0x00000000   Number         0  dflti.o ABSOLUTE
    ../fplib/microlib/fpflt.c                0x00000000   Number         0  dfltui.o ABSOLUTE
    ../fplib/microlib/fpmul.c                0x00000000   Number         0  dmul.o ABSOLUTE
    Application\Ano_DT.c                     0x00000000   Number         0  ano_dt.o ABSOLUTE
    Application\Ano_FlyCtrl.c                0x00000000   Number         0  ano_flyctrl.o ABSOLUTE
    Application\Ano_LED.c                    0x00000000   Number         0  ano_led.o ABSOLUTE
    Application\Ano_OF_DecoFusion.c          0x00000000   Number         0  ano_of_decofusion.o ABSOLUTE
    Application\Ano_OPMV_CBTracking_Ctrl.c   0x00000000   Number         0  ano_opmv_cbtracking_ctrl.o ABSOLUTE
    Application\Ano_OPMV_Ctrl.c              0x00000000   Number         0  ano_opmv_ctrl.o ABSOLUTE
    Application\Ano_OPMV_LineTracking_Ctrl.c 0x00000000   Number         0  ano_opmv_linetracking_ctrl.o ABSOLUTE
    Application\Ano_Parameter.c              0x00000000   Number         0  ano_parameter.o ABSOLUTE
    Application\Ano_ProgramCtrl_User.c       0x00000000   Number         0  ano_programctrl_user.o ABSOLUTE
    Application\Ano_RC.c                     0x00000000   Number         0  ano_rc.o ABSOLUTE
    Application\Ano_Scheduler.c              0x00000000   Number         0  ano_scheduler.o ABSOLUTE
    Application\Ano_Usb.c                    0x00000000   Number         0  ano_usb.o ABSOLUTE
    Application\\Ano_DT.c                    0x00000000   Number         0  ano_dt.o ABSOLUTE
    Application\\Ano_FlyCtrl.c               0x00000000   Number         0  ano_flyctrl.o ABSOLUTE
    Application\\Ano_LED.c                   0x00000000   Number         0  ano_led.o ABSOLUTE
    Application\\Ano_OF_DecoFusion.c         0x00000000   Number         0  ano_of_decofusion.o ABSOLUTE
    Application\\Ano_OPMV_CBTracking_Ctrl.c  0x00000000   Number         0  ano_opmv_cbtracking_ctrl.o ABSOLUTE
    Application\\Ano_OPMV_Ctrl.c             0x00000000   Number         0  ano_opmv_ctrl.o ABSOLUTE
    Application\\Ano_OPMV_LineTracking_Ctrl.c 0x00000000   Number         0  ano_opmv_linetracking_ctrl.o ABSOLUTE
    Application\\Ano_Parameter.c             0x00000000   Number         0  ano_parameter.o ABSOLUTE
    Application\\Ano_ProgramCtrl_User.c      0x00000000   Number         0  ano_programctrl_user.o ABSOLUTE
    Application\\Ano_RC.c                    0x00000000   Number         0  ano_rc.o ABSOLUTE
    Application\\Ano_Scheduler.c             0x00000000   Number         0  ano_scheduler.o ABSOLUTE
    Application\\Ano_Usb.c                   0x00000000   Number         0  ano_usb.o ABSOLUTE
    Application\\main.c                      0x00000000   Number         0  main.o ABSOLUTE
    Application\main.c                       0x00000000   Number         0  main.o ABSOLUTE
    Driver\Drv_Adc.c                         0x00000000   Number         0  drv_adc.o ABSOLUTE
    Driver\Drv_Bsp.c                         0x00000000   Number         0  drv_bsp.o ABSOLUTE
    Driver\Drv_Led.c                         0x00000000   Number         0  drv_led.o ABSOLUTE
    Driver\Drv_Paramter.c                    0x00000000   Number         0  drv_paramter.o ABSOLUTE
    Driver\Drv_PwmOut.c                      0x00000000   Number         0  drv_pwmout.o ABSOLUTE
    Driver\Drv_RcIn.c                        0x00000000   Number         0  drv_rcin.o ABSOLUTE
    Driver\Drv_Spi.c                         0x00000000   Number         0  drv_spi.o ABSOLUTE
    Driver\Drv_Uart.c                        0x00000000   Number         0  drv_uart.o ABSOLUTE
    Driver\SenserDriver\Ano_OF.c             0x00000000   Number         0  ano_of.o ABSOLUTE
    Driver\SenserDriver\Ano_UWB.c            0x00000000   Number         0  ano_uwb.o ABSOLUTE
    Driver\SenserDriver\Drv_OpenMV.c         0x00000000   Number         0  drv_openmv.o ABSOLUTE
    Driver\SenserDriver\Drv_UP_Flow.c        0x00000000   Number         0  drv_up_flow.o ABSOLUTE
    Driver\SenserDriver\Drv_ak8975.c         0x00000000   Number         0  drv_ak8975.o ABSOLUTE
    Driver\SenserDriver\Drv_gps.c            0x00000000   Number         0  drv_gps.o ABSOLUTE
    Driver\SenserDriver\Drv_heating.c        0x00000000   Number         0  drv_heating.o ABSOLUTE
    Driver\SenserDriver\Drv_icm20602.c       0x00000000   Number         0  drv_icm20602.o ABSOLUTE
    Driver\SenserDriver\Drv_laser.c          0x00000000   Number         0  drv_laser.o ABSOLUTE
    Driver\SenserDriver\Drv_spl06.c          0x00000000   Number         0  drv_spl06.o ABSOLUTE
    Driver\\Drv_Adc.c                        0x00000000   Number         0  drv_adc.o ABSOLUTE
    Driver\\Drv_Bsp.c                        0x00000000   Number         0  drv_bsp.o ABSOLUTE
    Driver\\Drv_Led.c                        0x00000000   Number         0  drv_led.o ABSOLUTE
    Driver\\Drv_Paramter.c                   0x00000000   Number         0  drv_paramter.o ABSOLUTE
    Driver\\Drv_PwmOut.c                     0x00000000   Number         0  drv_pwmout.o ABSOLUTE
    Driver\\Drv_RcIn.c                       0x00000000   Number         0  drv_rcin.o ABSOLUTE
    Driver\\Drv_Spi.c                        0x00000000   Number         0  drv_spi.o ABSOLUTE
    Driver\\Drv_Uart.c                       0x00000000   Number         0  drv_uart.o ABSOLUTE
    Driver\\SenserDriver\\Ano_OF.c           0x00000000   Number         0  ano_of.o ABSOLUTE
    Driver\\SenserDriver\\Ano_UWB.c          0x00000000   Number         0  ano_uwb.o ABSOLUTE
    Driver\\SenserDriver\\Drv_OpenMV.c       0x00000000   Number         0  drv_openmv.o ABSOLUTE
    Driver\\SenserDriver\\Drv_UP_Flow.c      0x00000000   Number         0  drv_up_flow.o ABSOLUTE
    Driver\\SenserDriver\\Drv_ak8975.c       0x00000000   Number         0  drv_ak8975.o ABSOLUTE
    Driver\\SenserDriver\\Drv_gps.c          0x00000000   Number         0  drv_gps.o ABSOLUTE
    Driver\\SenserDriver\\Drv_heating.c      0x00000000   Number         0  drv_heating.o ABSOLUTE
    Driver\\SenserDriver\\Drv_icm20602.c     0x00000000   Number         0  drv_icm20602.o ABSOLUTE
    Driver\\SenserDriver\\Drv_laser.c        0x00000000   Number         0  drv_laser.o ABSOLUTE
    Driver\\SenserDriver\\Drv_spl06.c        0x00000000   Number         0  drv_spl06.o ABSOLUTE
    SRC\\fc_general\\Ano_FcData.c            0x00000000   Number         0  ano_fcdata.o ABSOLUTE
    SRC\\fc_general\\Ano_Filter.c            0x00000000   Number         0  ano_filter.o ABSOLUTE
    SRC\\fc_general\\Ano_Imu.c               0x00000000   Number         0  ano_imu.o ABSOLUTE
    SRC\\fc_general\\Ano_Math.c              0x00000000   Number         0  ano_math.o ABSOLUTE
    SRC\\fc_general\\Ano_MotionCal.c         0x00000000   Number         0  ano_motioncal.o ABSOLUTE
    SRC\\fc_general\\Ano_Navigate.c          0x00000000   Number         0  ano_navigate.o ABSOLUTE
    SRC\\fc_general\\Ano_Pid.c               0x00000000   Number         0  ano_pid.o ABSOLUTE
    SRC\\fc_general\\Ano_Sensor_Basic.c      0x00000000   Number         0  ano_sensor_basic.o ABSOLUTE
    SRC\\fc_specific\\Ano_AltCtrl.c          0x00000000   Number         0  ano_altctrl.o ABSOLUTE
    SRC\\fc_specific\\Ano_AttCtrl.c          0x00000000   Number         0  ano_attctrl.o ABSOLUTE
    SRC\\fc_specific\\Ano_FlightCtrl.c       0x00000000   Number         0  ano_flightctrl.o ABSOLUTE
    SRC\\fc_specific\\Ano_FlightDataCal.c    0x00000000   Number         0  ano_flightdatacal.o ABSOLUTE
    SRC\\fc_specific\\Ano_LocCtrl.c          0x00000000   Number         0  ano_locctrl.o ABSOLUTE
    SRC\\fc_specific\\Ano_MagProcess.c       0x00000000   Number         0  ano_magprocess.o ABSOLUTE
    SRC\\fc_specific\\Ano_MotorCtrl.c        0x00000000   Number         0  ano_motorctrl.o ABSOLUTE
    SRC\\fc_specific\\Ano_Power.c            0x00000000   Number         0  ano_power.o ABSOLUTE
    SRC\fc_general\Ano_FcData.c              0x00000000   Number         0  ano_fcdata.o ABSOLUTE
    SRC\fc_general\Ano_Filter.c              0x00000000   Number         0  ano_filter.o ABSOLUTE
    SRC\fc_general\Ano_Imu.c                 0x00000000   Number         0  ano_imu.o ABSOLUTE
    SRC\fc_general\Ano_Math.c                0x00000000   Number         0  ano_math.o ABSOLUTE
    SRC\fc_general\Ano_MotionCal.c           0x00000000   Number         0  ano_motioncal.o ABSOLUTE
    SRC\fc_general\Ano_Navigate.c            0x00000000   Number         0  ano_navigate.o ABSOLUTE
    SRC\fc_general\Ano_Pid.c                 0x00000000   Number         0  ano_pid.o ABSOLUTE
    SRC\fc_general\Ano_Sensor_Basic.c        0x00000000   Number         0  ano_sensor_basic.o ABSOLUTE
    SRC\fc_specific\Ano_AltCtrl.c            0x00000000   Number         0  ano_altctrl.o ABSOLUTE
    SRC\fc_specific\Ano_AttCtrl.c            0x00000000   Number         0  ano_attctrl.o ABSOLUTE
    SRC\fc_specific\Ano_FlightCtrl.c         0x00000000   Number         0  ano_flightctrl.o ABSOLUTE
    SRC\fc_specific\Ano_FlightDataCal.c      0x00000000   Number         0  ano_flightdatacal.o ABSOLUTE
    SRC\fc_specific\Ano_LocCtrl.c            0x00000000   Number         0  ano_locctrl.o ABSOLUTE
    SRC\fc_specific\Ano_MagProcess.c         0x00000000   Number         0  ano_magprocess.o ABSOLUTE
    SRC\fc_specific\Ano_MotorCtrl.c          0x00000000   Number         0  ano_motorctrl.o ABSOLUTE
    SRC\fc_specific\Ano_Power.c              0x00000000   Number         0  ano_power.o ABSOLUTE
    TiDriver\\src\\system_TM4C123.c          0x00000000   Number         0  system_tm4c123.o ABSOLUTE
    TiDriver\src\startup_TM4C123.s           0x00000000   Number         0  startup_tm4c123.o ABSOLUTE
    TiDriver\src\system_TM4C123.c            0x00000000   Number         0  system_tm4c123.o ABSOLUTE
    TiDriver\src\usb_serial_structs.c        0x00000000   Number         0  usb_serial_structs.o ABSOLUTE
    adc.c                                    0x00000000   Number         0  adc.o ABSOLUTE
    cdcmple.s                                0x00000000   Number         0  cdcmple.o ABSOLUTE
    cdrcmple.s                               0x00000000   Number         0  cdrcmple.o ABSOLUTE
    cpu.c                                    0x00000000   Number         0  cpu.o ABSOLUTE
    cpu.c                                    0x00000000   Number         0  cpu.o ABSOLUTE
    dc.s                                     0x00000000   Number         0  dc.o ABSOLUTE
    device\usbdcdc.c                         0x00000000   Number         0  usbdcdc.o ABSOLUTE
    device\usbdcdesc.c                       0x00000000   Number         0  usbdcdesc.o ABSOLUTE
    device\usbdconfig.c                      0x00000000   Number         0  usbdconfig.o ABSOLUTE
    device\usbdenum.c                        0x00000000   Number         0  usbdenum.o ABSOLUTE
    device\usbdhandler.c                     0x00000000   Number         0  usbdhandler.o ABSOLUTE
    gpio.c                                   0x00000000   Number         0  gpio.o ABSOLUTE
    handlers.s                               0x00000000   Number         0  handlers.o ABSOLUTE
    host\usbhhub.c                           0x00000000   Number         0  usbhhub.o ABSOLUTE
    host\usbhostenum.c                       0x00000000   Number         0  usbhostenum.o ABSOLUTE
    init.s                                   0x00000000   Number         0  init.o ABSOLUTE
    interrupt.c                              0x00000000   Number         0  interrupt.o ABSOLUTE
    sysctl.c                                 0x00000000   Number         0  sysctl.o ABSOLUTE
    sysctl.c                                 0x00000000   Number         0  sysctl.o ABSOLUTE
    timer.c                                  0x00000000   Number         0  timer.o ABSOLUTE
    uart.c                                   0x00000000   Number         0  uart.o ABSOLUTE
    udma.c                                   0x00000000   Number         0  udma.o ABSOLUTE
    usb.c                                    0x00000000   Number         0  usb.o ABSOLUTE
    usbbuffer.c                              0x00000000   Number         0  usbbuffer.o ABSOLUTE
    usbdesc.c                                0x00000000   Number         0  usbdesc.o ABSOLUTE
    usbdma.c                                 0x00000000   Number         0  usbdma.o ABSOLUTE
    usbmode.c                                0x00000000   Number         0  usbmode.o ABSOLUTE
    usbringbuf.c                             0x00000000   Number         0  usbringbuf.o ABSOLUTE
    usbtick.c                                0x00000000   Number         0  usbtick.o ABSOLUTE
    usbulpi.c                                0x00000000   Number         0  usbulpi.o ABSOLUTE
    .ARM.Collect$$$$00000000                 0x0000026c   Section        0  entry.o(.ARM.Collect$$$$00000000)
    .ARM.Collect$$$$00000001                 0x0000026c   Section        4  entry2.o(.ARM.Collect$$$$00000001)
    .ARM.Collect$$$$00000004                 0x00000270   Section        4  entry5.o(.ARM.Collect$$$$00000004)
    .ARM.Collect$$$$00000008                 0x00000274   Section        0  entry7b.o(.ARM.Collect$$$$00000008)
    .ARM.Collect$$$$0000000A                 0x00000274   Section        0  entry8b.o(.ARM.Collect$$$$0000000A)
    .ARM.Collect$$$$0000000B                 0x00000274   Section        8  entry9a.o(.ARM.Collect$$$$0000000B)
    .ARM.Collect$$$$0000000D                 0x0000027c   Section        0  entry10a.o(.ARM.Collect$$$$0000000D)
    .ARM.Collect$$$$0000000F                 0x0000027c   Section        0  entry11a.o(.ARM.Collect$$$$0000000F)
    .ARM.Collect$$$$00002712                 0x0000027c   Section        4  entry2.o(.ARM.Collect$$$$00002712)
    __lit__00000000                          0x0000027c   Data           4  entry2.o(.ARM.Collect$$$$00002712)
    .emb_text                                0x00000280   Section       38  cpu.o(.emb_text)
    $v0                                      0x00000280   Number         0  cpu.o(.emb_text)
    .text                                    0x000002a8   Section      252  startup_tm4c123.o(.text)
    $v0                                      0x000002a8   Number         0  startup_tm4c123.o(.text)
    .text                                    0x000003a4   Section        0  memcpya.o(.text)
    .text                                    0x000003c8   Section        0  dadd.o(.text)
    .text                                    0x00000516   Section        0  dmul.o(.text)
    .text                                    0x000005fa   Section        0  ddiv.o(.text)
    .text                                    0x000006d8   Section        0  dflti.o(.text)
    .text                                    0x000006fa   Section        0  dfltui.o(.text)
    .text                                    0x00000714   Section        0  dfixi.o(.text)
    .text                                    0x00000752   Section        0  f2d.o(.text)
    .text                                    0x00000778   Section        0  d2f.o(.text)
    .text                                    0x000007b0   Section        0  llshl.o(.text)
    .text                                    0x000007ce   Section        0  llushr.o(.text)
    .text                                    0x000007ee   Section        0  llsshr.o(.text)
    .text                                    0x00000812   Section        0  iusefp.o(.text)
    .text                                    0x00000812   Section        0  fepilogue.o(.text)
    .text                                    0x00000880   Section        0  depilogue.o(.text)
    .text                                    0x0000093c   Section       36  init.o(.text)
    .text                                    0x00000960   Section        0  __dczerorl2.o(.text)
    i.ADC0Handler                            0x000009b8   Section        0  drv_adc.o(i.ADC0Handler)
    i.ADCIntRegister                         0x00000a4c   Section        0  adc.o(i.ADCIntRegister)
    i.ANO_CBTracking_Calcu                   0x00000ab4   Section        0  ano_opmv_cbtracking_ctrl.o(i.ANO_CBTracking_Calcu)
    ANO_CBTracking_Calcu                     0x00000ab5   Thumb Code   246  ano_opmv_cbtracking_ctrl.o(i.ANO_CBTracking_Calcu)
    i.ANO_CBTracking_Ctrl                    0x00000bc0   Section        0  ano_opmv_cbtracking_ctrl.o(i.ANO_CBTracking_Ctrl)
    i.ANO_CBTracking_Decoupling              0x00000c34   Section        0  ano_opmv_cbtracking_ctrl.o(i.ANO_CBTracking_Decoupling)
    ANO_CBTracking_Decoupling                0x00000c35   Thumb Code   646  ano_opmv_cbtracking_ctrl.o(i.ANO_CBTracking_Decoupling)
    i.ANO_CBTracking_Task                    0x00000eec   Section        0  ano_opmv_cbtracking_ctrl.o(i.ANO_CBTracking_Task)
    i.ANO_DT_Data_Exchange                   0x00000f3c   Section        0  ano_dt.o(i.ANO_DT_Data_Exchange)
    i.ANO_DT_Data_Receive_Anl                0x000013f8   Section        0  ano_dt.o(i.ANO_DT_Data_Receive_Anl)
    i.ANO_DT_Data_Receive_Anl_Task           0x00001574   Section        0  ano_dt.o(i.ANO_DT_Data_Receive_Anl_Task)
    i.ANO_DT_Data_Receive_Prepare            0x000015e8   Section        0  ano_dt.o(i.ANO_DT_Data_Receive_Prepare)
    i.ANO_DT_Data_Receive_Prepare_USB        0x000016d4   Section        0  ano_dt.o(i.ANO_DT_Data_Receive_Prepare_USB)
    i.ANO_DT_GetParame                       0x000017c0   Section        0  ano_dt.o(i.ANO_DT_GetParame)
    i.ANO_DT_ParListToParUsed                0x000017ec   Section        0  ano_dt.o(i.ANO_DT_ParListToParUsed)
    i.ANO_DT_ParUsedToParList                0x00001c7c   Section        0  ano_dt.o(i.ANO_DT_ParUsedToParList)
    i.ANO_DT_SendCmd                         0x00002150   Section        0  ano_dt.o(i.ANO_DT_SendCmd)
    i.ANO_DT_SendParame                      0x00002244   Section        0  ano_dt.o(i.ANO_DT_SendParame)
    i.ANO_DT_SendSensorSta                   0x00002330   Section        0  ano_dt.o(i.ANO_DT_SendSensorSta)
    i.ANO_DT_SendString                      0x000023d4   Section        0  ano_dt.o(i.ANO_DT_SendString)
    i.ANO_DT_Send_Data                       0x00002460   Section        0  ano_dt.o(i.ANO_DT_Send_Data)
    i.ANO_DT_Send_Location                   0x0000247c   Section        0  ano_dt.o(i.ANO_DT_Send_Location)
    i.ANO_DT_Send_MotoPWM                    0x000025dc   Section        0  ano_dt.o(i.ANO_DT_Send_MotoPWM)
    i.ANO_DT_Send_Power                      0x00002714   Section        0  ano_dt.o(i.ANO_DT_Send_Power)
    i.ANO_DT_Send_RCData                     0x000027ac   Section        0  ano_dt.o(i.ANO_DT_Send_RCData)
    i.ANO_DT_Send_Senser                     0x0000291c   Section        0  ano_dt.o(i.ANO_DT_Send_Senser)
    i.ANO_DT_Send_Senser2                    0x00002aa4   Section        0  ano_dt.o(i.ANO_DT_Send_Senser2)
    i.ANO_DT_Send_Speed                      0x00002b88   Section        0  ano_dt.o(i.ANO_DT_Send_Speed)
    i.ANO_DT_Send_Status                     0x00002c90   Section        0  ano_dt.o(i.ANO_DT_Send_Status)
    i.ANO_DT_Send_User                       0x00002df4   Section        0  ano_dt.o(i.ANO_DT_Send_User)
    i.ANO_DT_Send_VER                        0x00002fb4   Section        0  ano_dt.o(i.ANO_DT_Send_VER)
    i.ANO_DT_Send_Version                    0x00003024   Section        0  ano_dt.o(i.ANO_DT_Send_Version)
    i.ANO_LT_StepProcedure                   0x000030f8   Section        0  ano_opmv_linetracking_ctrl.o(i.ANO_LT_StepProcedure)
    i.ANO_LTracking_Ctrl                     0x00003370   Section        0  ano_opmv_linetracking_ctrl.o(i.ANO_LTracking_Ctrl)
    i.ANO_OFDF_Task                          0x0000344c   Section        0  ano_of_decofusion.o(i.ANO_OFDF_Task)
    i.ANO_OF_Data_Get                        0x00003468   Section        0  ano_of_decofusion.o(i.ANO_OF_Data_Get)
    ANO_OF_Data_Get                          0x00003469   Thumb Code   192  ano_of_decofusion.o(i.ANO_OF_Data_Get)
    i.ANO_OF_Data_Prepare_Task               0x0000353c   Section        0  ano_of_decofusion.o(i.ANO_OF_Data_Prepare_Task)
    i.ANO_OF_Decouple                        0x00003584   Section        0  ano_of_decofusion.o(i.ANO_OF_Decouple)
    ANO_OF_Decouple                          0x00003585   Thumb Code   156  ano_of_decofusion.o(i.ANO_OF_Decouple)
    i.ANO_OF_Fusion                          0x00003634   Section        0  ano_of_decofusion.o(i.ANO_OF_Fusion)
    ANO_OF_Fusion                            0x00003635   Thumb Code   448  ano_of_decofusion.o(i.ANO_OF_Fusion)
    i.ANO_OPMV_Ctrl_Task                     0x00003820   Section        0  ano_opmv_ctrl.o(i.ANO_OPMV_Ctrl_Task)
    i.All_PID_Init                           0x00003914   Section        0  ano_flightctrl.o(i.All_PID_Init)
    i.Alt_1level_Ctrl                        0x0000392c   Section        0  ano_altctrl.o(i.Alt_1level_Ctrl)
    i.Alt_1level_PID_Init                    0x00003b00   Section        0  ano_altctrl.o(i.Alt_1level_PID_Init)
    i.Alt_2level_Ctrl                        0x00003b3c   Section        0  ano_altctrl.o(i.Alt_2level_Ctrl)
    i.Alt_2level_PID_Init                    0x00003d44   Section        0  ano_altctrl.o(i.Alt_2level_PID_Init)
    i.AnoOF_Check                            0x00003d80   Section        0  ano_of.o(i.AnoOF_Check)
    i.AnoOF_DataAnl                          0x00003df0   Section        0  ano_of.o(i.AnoOF_DataAnl)
    i.AnoOF_DataAnl_Task                     0x00003fe0   Section        0  ano_of.o(i.AnoOF_DataAnl_Task)
    i.AnoOF_GetOneByte                       0x00003fec   Section        0  ano_of.o(i.AnoOF_GetOneByte)
    i.AnoUsbCdcInit                          0x000040e0   Section        0  ano_usb.o(i.AnoUsbCdcInit)
    i.AnoUsbCdcRead                          0x0000415c   Section        0  ano_usb.o(i.AnoUsbCdcRead)
    i.AnoUsbCdcSend                          0x00004184   Section        0  ano_usb.o(i.AnoUsbCdcSend)
    i.Ano_Parame_Read                        0x000041a4   Section        0  ano_parameter.o(i.Ano_Parame_Read)
    i.Ano_Parame_Write                       0x000041c8   Section        0  ano_parameter.o(i.Ano_Parame_Write)
    Ano_Parame_Write                         0x000041c9   Thumb Code    22  ano_parameter.o(i.Ano_Parame_Write)
    i.Ano_Parame_Write_task                  0x000041e4   Section        0  ano_parameter.o(i.Ano_Parame_Write_task)
    i.Ano_UWB_Data_Calcu_Task                0x00004268   Section        0  ano_uwb.o(i.Ano_UWB_Data_Calcu_Task)
    i.Att_1level_Ctrl                        0x000042c8   Section        0  ano_attctrl.o(i.Att_1level_Ctrl)
    i.Att_1level_PID_Init                    0x00004530   Section        0  ano_attctrl.o(i.Att_1level_PID_Init)
    i.Att_2level_Ctrl                        0x000045d4   Section        0  ano_attctrl.o(i.Att_2level_Ctrl)
    i.Att_2level_PID_Init                    0x00004bb4   Section        0  ano_attctrl.o(i.Att_2level_PID_Init)
    i.Auto_Take_Off_Land_Task                0x00004c38   Section        0  ano_altctrl.o(i.Auto_Take_Off_Land_Task)
    i.CDCTickHandler                         0x00004e28   Section        0  usbdcdc.o(i.CDCTickHandler)
    CDCTickHandler                           0x00004e29   Thumb Code   238  usbdcdc.o(i.CDCTickHandler)
    i.Center_Pos_Set                         0x00004f18   Section        0  ano_sensor_basic.o(i.Center_Pos_Set)
    i.ControlHandler                         0x00004f3c   Section        0  ano_usb.o(i.ControlHandler)
    i.DMAUSBIntHandler                       0x00004fd8   Section        0  usbdma.o(i.DMAUSBIntHandler)
    DMAUSBIntHandler                         0x00004fd9   Thumb Code    64  usbdma.o(i.DMAUSBIntHandler)
    i.DMAUSBIntStatusClear                   0x00005018   Section        0  usbdma.o(i.DMAUSBIntStatusClear)
    DMAUSBIntStatusClear                     0x00005019   Thumb Code    14  usbdma.o(i.DMAUSBIntStatusClear)
    i.DMAUSBStatus                           0x00005026   Section        0  usbdma.o(i.DMAUSBStatus)
    DMAUSBStatus                             0x00005027   Thumb Code     4  usbdma.o(i.DMAUSBStatus)
    i.Drv_AK8975CSPinInit                    0x0000502c   Section        0  drv_ak8975.o(i.Drv_AK8975CSPinInit)
    i.Drv_AK8975_Read                        0x00005064   Section        0  drv_ak8975.o(i.Drv_AK8975_Read)
    i.Drv_Adc0Trigger                        0x00005098   Section        0  drv_adc.o(i.Drv_Adc0Trigger)
    i.Drv_AdcInit                            0x000050b0   Section        0  drv_adc.o(i.Drv_AdcInit)
    i.Drv_BspInit                            0x00005168   Section        0  drv_bsp.o(i.Drv_BspInit)
    i.Drv_GpsGetOneByte                      0x00005250   Section        0  drv_gps.o(i.Drv_GpsGetOneByte)
    i.Drv_GpsPin_Init                        0x000052c8   Section        0  drv_gps.o(i.Drv_GpsPin_Init)
    i.Drv_HeatSet                            0x000052f8   Section        0  drv_pwmout.o(i.Drv_HeatSet)
    i.Drv_HeatingSet                         0x0000532c   Section        0  drv_heating.o(i.Drv_HeatingSet)
    i.Drv_Icm20602CSPinInit                  0x0000533c   Section        0  drv_icm20602.o(i.Drv_Icm20602CSPinInit)
    i.Drv_Icm20602Init                       0x00005374   Section        0  drv_icm20602.o(i.Drv_Icm20602Init)
    i.Drv_Icm20602IrqHandler                 0x00005464   Section        0  drv_icm20602.o(i.Drv_Icm20602IrqHandler)
    i.Drv_Icm20602ReadyPinInit               0x00005478   Section        0  drv_icm20602.o(i.Drv_Icm20602ReadyPinInit)
    i.Drv_Icm20602_Read                      0x000054f4   Section        0  drv_icm20602.o(i.Drv_Icm20602_Read)
    i.Drv_Laser_GetOneByte                   0x0000550c   Section        0  drv_laser.o(i.Drv_Laser_GetOneByte)
    i.Drv_Laser_Init                         0x000055c8   Section        0  drv_laser.o(i.Drv_Laser_Init)
    i.Drv_LedOnOff                           0x00005614   Section        0  drv_led.o(i.Drv_LedOnOff)
    i.Drv_MotorPWMSet                        0x000056d0   Section        0  drv_pwmout.o(i.Drv_MotorPWMSet)
    i.Drv_OFInit                             0x000057a8   Section        0  drv_up_flow.o(i.Drv_OFInit)
    i.Drv_PpmInit                            0x000058d4   Section        0  drv_rcin.o(i.Drv_PpmInit)
    i.Drv_PwmOutInit                         0x000059b0   Section        0  drv_pwmout.o(i.Drv_PwmOutInit)
    i.Drv_SPL06CSPinInit                     0x00005c90   Section        0  drv_spl06.o(i.Drv_SPL06CSPinInit)
    i.Drv_SbusInit                           0x00005cc8   Section        0  drv_rcin.o(i.Drv_SbusInit)
    i.Drv_SenserCsPinInit                    0x00005d80   Section        0  drv_bsp.o(i.Drv_SenserCsPinInit)
    i.Drv_Spi0Init                           0x00005dc4   Section        0  drv_spi.o(i.Drv_Spi0Init)
    i.Drv_Spi0Receive                        0x00005e5c   Section        0  drv_spi.o(i.Drv_Spi0Receive)
    i.Drv_Spi0SingleWirteAndRead             0x00005e7c   Section        0  drv_spi.o(i.Drv_Spi0SingleWirteAndRead)
    i.Drv_Spl0601Init                        0x00005ebc   Section        0  drv_spl06.o(i.Drv_Spl0601Init)
    i.Drv_Spl0601_Read                       0x00005f14   Section        0  drv_spl06.o(i.Drv_Spl0601_Read)
    i.Drv_Uart1Init                          0x00005fd4   Section        0  drv_uart.o(i.Drv_Uart1Init)
    i.Drv_Uart1SendBuf                       0x000060a4   Section        0  drv_uart.o(i.Drv_Uart1SendBuf)
    i.Drv_Uart1TxCheck                       0x000060d8   Section        0  drv_uart.o(i.Drv_Uart1TxCheck)
    i.Drv_Uart2Init                          0x0000611c   Section        0  drv_uart.o(i.Drv_Uart2Init)
    i.Drv_Uart2SendBuf                       0x000061f4   Section        0  drv_uart.o(i.Drv_Uart2SendBuf)
    i.Drv_Uart2TxCheck                       0x00006228   Section        0  drv_uart.o(i.Drv_Uart2TxCheck)
    i.Drv_Uart3Init                          0x0000626c   Section        0  drv_uart.o(i.Drv_Uart3Init)
    i.Drv_Uart3TxCheck                       0x00006344   Section        0  drv_uart.o(i.Drv_Uart3TxCheck)
    i.Drv_Uart4Init                          0x00006388   Section        0  drv_uart.o(i.Drv_Uart4Init)
    i.Drv_Uart4SendBuf                       0x00006460   Section        0  drv_uart.o(i.Drv_Uart4SendBuf)
    i.Drv_Uart4TxCheck                       0x00006494   Section        0  drv_uart.o(i.Drv_Uart4TxCheck)
    i.Drv_Uart5Init                          0x000064d8   Section        0  drv_uart.o(i.Drv_Uart5Init)
    i.Drv_Uart5TxCheck                       0x000065cc   Section        0  drv_uart.o(i.Drv_Uart5TxCheck)
    i.Dvr_LedInit                            0x00006610   Section        0  drv_led.o(i.Dvr_LedInit)
    i.Dvr_ParamterInit                       0x00006698   Section        0  drv_paramter.o(i.Dvr_ParamterInit)
    i.Dvr_ParamterRead                       0x000066b8   Section        0  drv_paramter.o(i.Dvr_ParamterRead)
    i.Dvr_ParamterSave                       0x000066d4   Section        0  drv_paramter.o(i.Dvr_ParamterSave)
    i.Fc_Sensor_Get                          0x000066f0   Section        0  ano_flightdatacal.o(i.Fc_Sensor_Get)
    i.Flight_Mode_Set                        0x0000674c   Section        0  ano_flightctrl.o(i.Flight_Mode_Set)
    i.Flight_State_Task                      0x00006820   Section        0  ano_flightctrl.o(i.Flight_State_Task)
    i.FlyCtrlDataAnl                         0x00006ce8   Section        0  ano_flyctrl.o(i.FlyCtrlDataAnl)
    i.FlyCtrlReset                           0x00006d14   Section        0  ano_flyctrl.o(i.FlyCtrlReset)
    i.FlyCtrl_Task                           0x00006d84   Section        0  ano_flyctrl.o(i.FlyCtrl_Task)
    i.GPIOIntClear                           0x000075f0   Section        0  gpio.o(i.GPIOIntClear)
    i.GPIOIntEnable                          0x000075f6   Section        0  gpio.o(i.GPIOIntEnable)
    i.GPIOIntRegister                        0x00007602   Section        0  gpio.o(i.GPIOIntRegister)
    i.GPS_Data_Processing_Task               0x0000761c   Section        0  drv_gps.o(i.GPS_Data_Processing_Task)
    i.GPS_data_analysis                      0x000077d4   Section        0  drv_gps.o(i.GPS_data_analysis)
    i.GPS_ubx_check_sum                      0x0000796c   Section        0  drv_gps.o(i.GPS_ubx_check_sum)
    i.GetSysRunTimeUs                        0x000079cc   Section        0  drv_bsp.o(i.GetSysRunTimeUs)
    i.HandleConfigChange                     0x00007a00   Section        0  usbdcdc.o(i.HandleConfigChange)
    HandleConfigChange                       0x00007a01   Thumb Code    50  usbdcdc.o(i.HandleConfigChange)
    i.HandleDevice                           0x00007a32   Section        0  usbdcdc.o(i.HandleDevice)
    HandleDevice                             0x00007a33   Thumb Code   194  usbdcdc.o(i.HandleDevice)
    i.HandleDisconnect                       0x00007af4   Section        0  usbdcdc.o(i.HandleDisconnect)
    HandleDisconnect                         0x00007af5   Thumb Code    34  usbdcdc.o(i.HandleDisconnect)
    i.HandleEP0Data                          0x00007b16   Section        0  usbdcdc.o(i.HandleEP0Data)
    HandleEP0Data                            0x00007b17   Thumb Code   154  usbdcdc.o(i.HandleEP0Data)
    i.HandleEndpoints                        0x00007bb0   Section        0  usbdcdc.o(i.HandleEndpoints)
    HandleEndpoints                          0x00007bb1   Thumb Code   126  usbdcdc.o(i.HandleEndpoints)
    i.HandleRequests                         0x00007c2e   Section        0  usbdcdc.o(i.HandleRequests)
    HandleRequests                           0x00007c2f   Thumb Code   374  usbdcdc.o(i.HandleRequests)
    i.HandleResume                           0x00007da4   Section        0  usbdcdc.o(i.HandleResume)
    HandleResume                             0x00007da5   Thumb Code    12  usbdcdc.o(i.HandleResume)
    i.HandleSuspend                          0x00007db0   Section        0  usbdcdc.o(i.HandleSuspend)
    HandleSuspend                            0x00007db1   Thumb Code    12  usbdcdc.o(i.HandleSuspend)
    i.ICM_Get_Data                           0x00007dbc   Section        0  drv_icm20602.o(i.ICM_Get_Data)
    i.IMU_Update_Task                        0x00007e9c   Section        0  ano_flightdatacal.o(i.IMU_Update_Task)
    i.IMU_update                             0x00007f44   Section        0  ano_imu.o(i.IMU_update)
    i.INT_1ms_Task                           0x000088e4   Section        0  ano_scheduler.o(i.INT_1ms_Task)
    i.IntDisable                             0x0000891c   Section        0  interrupt.o(i.IntDisable)
    i.IntEnable                              0x00008980   Section        0  interrupt.o(i.IntEnable)
    i.IntIsEnabled                           0x000089e4   Section        0  interrupt.o(i.IntIsEnabled)
    i.IntMasterDisable                       0x00008a44   Section        0  interrupt.o(i.IntMasterDisable)
    i.IntMasterEnable                        0x00008a52   Section        0  interrupt.o(i.IntMasterEnable)
    i.IntRegister                            0x00008a60   Section        0  interrupt.o(i.IntRegister)
    i.InternalUSBRegisterTickHandler         0x00008a94   Section        0  usbtick.o(i.InternalUSBRegisterTickHandler)
    i.InternalUSBStartOfFrameTick            0x00008ac8   Section        0  usbtick.o(i.InternalUSBStartOfFrameTick)
    i.InternalUSBTickInit                    0x00008b00   Section        0  usbtick.o(i.InternalUSBTickInit)
    i.LED_1ms_DRV                            0x00008b38   Section        0  ano_led.o(i.LED_1ms_DRV)
    i.LED_Task2                              0x00008c0c   Section        0  ano_led.o(i.LED_Task2)
    i.Loc_1level_Ctrl                        0x00008f58   Section        0  ano_locctrl.o(i.Loc_1level_Ctrl)
    i.Loc_1level_PID_Init                    0x00009ba8   Section        0  ano_locctrl.o(i.Loc_1level_PID_Init)
    i.Loop_Task_0                            0x00009d2c   Section        0  ano_scheduler.o(i.Loop_Task_0)
    Loop_Task_0                              0x00009d2d   Thumb Code    54  ano_scheduler.o(i.Loop_Task_0)
    i.Loop_Task_1                            0x00009d6c   Section        0  ano_scheduler.o(i.Loop_Task_1)
    Loop_Task_1                              0x00009d6d   Thumb Code    48  ano_scheduler.o(i.Loop_Task_1)
    i.Loop_Task_2                            0x00009da4   Section        0  ano_scheduler.o(i.Loop_Task_2)
    Loop_Task_2                              0x00009da5   Thumb Code    48  ano_scheduler.o(i.Loop_Task_2)
    i.Loop_Task_5                            0x00009de0   Section        0  ano_scheduler.o(i.Loop_Task_5)
    Loop_Task_5                              0x00009de1   Thumb Code    86  ano_scheduler.o(i.Loop_Task_5)
    i.Loop_Task_8                            0x00009e40   Section        0  ano_scheduler.o(i.Loop_Task_8)
    Loop_Task_8                              0x00009e41   Thumb Code   416  ano_scheduler.o(i.Loop_Task_8)
    i.Loop_Task_9                            0x00009ff8   Section        0  ano_scheduler.o(i.Loop_Task_9)
    Loop_Task_9                              0x00009ff9   Thumb Code    24  ano_scheduler.o(i.Loop_Task_9)
    i.MPU6050_Data_Offset                    0x0000a010   Section        0  ano_sensor_basic.o(i.MPU6050_Data_Offset)
    i.Mag_Cal_Reset                          0x0000a208   Section        0  ano_magprocess.o(i.Mag_Cal_Reset)
    Mag_Cal_Reset                            0x0000a209   Thumb Code    96  ano_magprocess.o(i.Mag_Cal_Reset)
    i.Mag_Cal_XY                             0x0000a270   Section        0  ano_magprocess.o(i.Mag_Cal_XY)
    Mag_Cal_XY                               0x0000a271   Thumb Code    80  ano_magprocess.o(i.Mag_Cal_XY)
    i.Mag_Cal_Z                              0x0000a2c8   Section        0  ano_magprocess.o(i.Mag_Cal_Z)
    Mag_Cal_Z                                0x0000a2c9   Thumb Code    62  ano_magprocess.o(i.Mag_Cal_Z)
    i.Mag_Data_Deal_Task                     0x0000a310   Section        0  ano_magprocess.o(i.Mag_Data_Deal_Task)
    i.Mag_Get                                0x0000a6f0   Section        0  drv_ak8975.o(i.Mag_Get)
    i.Mag_Update_Task                        0x0000a748   Section        0  ano_flightdatacal.o(i.Mag_Update_Task)
    i.Main_Task                              0x0000a784   Section        0  ano_scheduler.o(i.Main_Task)
    i.Motor_Ctrl_Task                        0x0000a7fc   Section        0  ano_motorctrl.o(i.Motor_Ctrl_Task)
    i.MyDelayMs                              0x0000aa2c   Section        0  drv_bsp.o(i.MyDelayMs)
    i.OFGetByte                              0x0000aa50   Section        0  drv_up_flow.o(i.OFGetByte)
    i.OF_INS_Get                             0x0000ab50   Section        0  ano_of_decofusion.o(i.OF_INS_Get)
    OF_INS_Get                               0x0000ab51   Thumb Code   324  ano_of_decofusion.o(i.OF_INS_Get)
    i.OF_INS_Reset                           0x0000aca8   Section        0  ano_of_decofusion.o(i.OF_INS_Reset)
    OF_INS_Reset                             0x0000aca9   Thumb Code    42  ano_of_decofusion.o(i.OF_INS_Reset)
    i.OF_State                               0x0000ace0   Section        0  ano_of_decofusion.o(i.OF_State)
    OF_State                                 0x0000ace1   Thumb Code    80  ano_of_decofusion.o(i.OF_State)
    i.OpenMV_Byte_Get                        0x0000ad44   Section        0  drv_openmv.o(i.OpenMV_Byte_Get)
    i.OpenMV_Check_Reset                     0x0000ae60   Section        0  drv_openmv.o(i.OpenMV_Check_Reset)
    OpenMV_Check_Reset                       0x0000ae61   Thumb Code    12  drv_openmv.o(i.OpenMV_Check_Reset)
    i.OpenMV_Data_Analysis                   0x0000ae74   Section        0  drv_openmv.o(i.OpenMV_Data_Analysis)
    OpenMV_Data_Analysis                     0x0000ae75   Thumb Code   158  drv_openmv.o(i.OpenMV_Data_Analysis)
    i.OpenMV_Offline_Check                   0x0000af18   Section        0  drv_openmv.o(i.OpenMV_Offline_Check)
    i.PID_Rest                               0x0000af44   Section        0  ano_parameter.o(i.PID_Rest)
    i.PID_calculate                          0x0000b11c   Section        0  ano_pid.o(i.PID_calculate)
    i.PPM_Cal                                0x0000b23c   Section        0  drv_rcin.o(i.PPM_Cal)
    PPM_Cal                                  0x0000b23d   Thumb Code    70  drv_rcin.o(i.PPM_Cal)
    i.PPM_Decode                             0x0000b28c   Section        0  drv_rcin.o(i.PPM_Decode)
    PPM_Decode                               0x0000b28d   Thumb Code   116  drv_rcin.o(i.PPM_Decode)
    i.Para_Data_Init                         0x0000b310   Section        0  ano_fcdata.o(i.Para_Data_Init)
    i.Parame_Copy_Fc2para                    0x0000b318   Section        0  ano_parameter.o(i.Parame_Copy_Fc2para)
    Parame_Copy_Fc2para                      0x0000b319   Thumb Code    82  ano_parameter.o(i.Parame_Copy_Fc2para)
    i.Parame_Copy_Para2fc                    0x0000b374   Section        0  ano_parameter.o(i.Parame_Copy_Para2fc)
    Parame_Copy_Para2fc                      0x0000b375   Thumb Code    86  ano_parameter.o(i.Parame_Copy_Para2fc)
    i.Parame_Reset                           0x0000b3d4   Section        0  ano_parameter.o(i.Parame_Reset)
    i.Power_UpdateTask                       0x0000b4d4   Section        0  ano_power.o(i.Power_UpdateTask)
    i.ProcessDataFromHost                    0x0000b6b0   Section        0  usbdcdc.o(i.ProcessDataFromHost)
    i.ProcessDataToHost                      0x0000b738   Section        0  usbdcdc.o(i.ProcessDataToHost)
    i.Program_Ctrl_User_Set_HXYcmps          0x0000b79c   Section        0  ano_programctrl_user.o(i.Program_Ctrl_User_Set_HXYcmps)
    i.Program_Ctrl_User_Set_YAWdps           0x0000b7d0   Section        0  ano_programctrl_user.o(i.Program_Ctrl_User_Set_YAWdps)
    i.RC_duty_task                           0x0000b824   Section        0  ano_rc.o(i.RC_duty_task)
    i.Remote_Control_Init                    0x0000b960   Section        0  ano_rc.o(i.Remote_Control_Init)
    i.RxHandler                              0x0000b988   Section        0  ano_usb.o(i.RxHandler)
    i.Sbus_Decode                            0x0000b9b0   Section        0  drv_rcin.o(i.Sbus_Decode)
    Sbus_Decode                              0x0000b9b1   Thumb Code   490  drv_rcin.o(i.Sbus_Decode)
    i.Sbus_IRQHandler                        0x0000bbb0   Section        0  drv_rcin.o(i.Sbus_IRQHandler)
    Sbus_IRQHandler                          0x0000bbb1   Thumb Code    76  drv_rcin.o(i.Sbus_IRQHandler)
    i.ScheduleNextTransmission               0x0000bc00   Section        0  usbbuffer.o(i.ScheduleNextTransmission)
    ScheduleNextTransmission                 0x0000bc01   Thumb Code   166  usbbuffer.o(i.ScheduleNextTransmission)
    i.SendBreak                              0x0000bca6   Section        0  usbdcdc.o(i.SendBreak)
    SendBreak                                0x0000bca7   Thumb Code    68  usbdcdc.o(i.SendBreak)
    i.SendSerialState                        0x0000bcea   Section        0  usbdcdc.o(i.SendSerialState)
    SendSerialState                          0x0000bceb   Thumb Code   150  usbdcdc.o(i.SendSerialState)
    i.Sensor_Basic_Init                      0x0000bd80   Section        0  ano_sensor_basic.o(i.Sensor_Basic_Init)
    i.Sensor_Data_Prepare                    0x0000bd98   Section        0  ano_sensor_basic.o(i.Sensor_Data_Prepare)
    i.Set_Att_1level_Ki                      0x0000c168   Section        0  ano_attctrl.o(i.Set_Att_1level_Ki)
    i.Set_Att_2level_Ki                      0x0000c1ac   Section        0  ano_attctrl.o(i.Set_Att_2level_Ki)
    i.Speed_Mode_Switch                      0x0000c1dc   Section        0  ano_flightctrl.o(i.Speed_Mode_Switch)
    Speed_Mode_Switch                        0x0000c1dd   Thumb Code     2  ano_flightctrl.o(i.Speed_Mode_Switch)
    i.Swtich_State_Task                      0x0000c1e0   Section        0  ano_flightctrl.o(i.Swtich_State_Task)
    i.SysCtlClockGet                         0x0000c378   Section        0  sysctl.o(i.SysCtlClockGet)
    i.SysCtlPeripheralEnable                 0x0000c4cc   Section        0  sysctl.o(i.SysCtlPeripheralEnable)
    i.SysCtlPeripheralReset                  0x0000c4f4   Section        0  sysctl.o(i.SysCtlPeripheralReset)
    i.SysCtlUSBPLLEnable                     0x0000c530   Section        0  sysctl.o(i.SysCtlUSBPLLEnable)
    i.SysTick_Handler                        0x0000c540   Section        0  drv_bsp.o(i.SysTick_Handler)
    i.SysTick_Init                           0x0000c558   Section        0  drv_bsp.o(i.SysTick_Init)
    i.SystemInit                             0x0000c590   Section        0  system_tm4c123.o(i.SystemInit)
    i.Thermostatic_Ctrl_Task                 0x0000c628   Section        0  drv_heating.o(i.Thermostatic_Ctrl_Task)
    i.TimerIntRegister                       0x0000c8f8   Section        0  timer.o(i.TimerIntRegister)
    i.TxHandler                              0x0000c960   Section        0  ano_usb.o(i.TxHandler)
    i.UART1_IRQHandler                       0x0000c974   Section        0  drv_uart.o(i.UART1_IRQHandler)
    i.UART2_IRQHandler                       0x0000c9cc   Section        0  drv_uart.o(i.UART2_IRQHandler)
    i.UART3_IRQHandler                       0x0000ca24   Section        0  drv_uart.o(i.UART3_IRQHandler)
    i.UART4_IRQHandler                       0x0000ca7c   Section        0  drv_uart.o(i.UART4_IRQHandler)
    i.UART5_IRQHandler                       0x0000caec   Section        0  drv_uart.o(i.UART5_IRQHandler)
    i.UARTIntRegister                        0x0000cb44   Section        0  uart.o(i.UARTIntRegister)
    i.UART_Write_D                           0x0000cb9c   Section        0  drv_gps.o(i.UART_Write_D)
    UART_Write_D                             0x0000cb9d   Thumb Code    16  drv_gps.o(i.UART_Write_D)
    i.ULPIConfigSet                          0x0000cbac   Section        0  usbulpi.o(i.ULPIConfigSet)
    i.USB0DeviceIntHandler                   0x0000cc08   Section        0  usbdhandler.o(i.USB0DeviceIntHandler)
    i.USBBufferEventCallback                 0x0000cc20   Section        0  usbbuffer.o(i.USBBufferEventCallback)
    i.USBBufferFlush                         0x0000cd74   Section        0  usbbuffer.o(i.USBBufferFlush)
    i.USBBufferInit                          0x0000cd7a   Section        0  usbbuffer.o(i.USBBufferInit)
    i.USBBufferRead                          0x0000cd92   Section        0  usbbuffer.o(i.USBBufferRead)
    i.USBBufferWrite                         0x0000cdba   Section        0  usbbuffer.o(i.USBBufferWrite)
    i.USBClockEnable                         0x0000cdee   Section        0  usb.o(i.USBClockEnable)
    i.USBControllerVersion                   0x0000cdf8   Section        0  usb.o(i.USBControllerVersion)
    i.USBDCDCCompositeInit                   0x0000ce04   Section        0  usbdcdc.o(i.USBDCDCCompositeInit)
    i.USBDCDCInit                            0x0000cee0   Section        0  usbdcdc.o(i.USBDCDCInit)
    i.USBDCDCPacketRead                      0x0000cf2c   Section        0  usbdcdc.o(i.USBDCDCPacketRead)
    i.USBDCDCPacketWrite                     0x0000cfd0   Section        0  usbdcdc.o(i.USBDCDCPacketWrite)
    i.USBDCDCRxPacketAvailable               0x0000d028   Section        0  usbdcdc.o(i.USBDCDCRxPacketAvailable)
    i.USBDCDCTxPacketAvailable               0x0000d060   Section        0  usbdcdc.o(i.USBDCDCTxPacketAvailable)
    i.USBDCDConfigDescGet                    0x0000d074   Section        0  usbdcdesc.o(i.USBDCDConfigDescGet)
    i.USBDCDConfigDescGetNum                 0x0000d0ca   Section        0  usbdcdesc.o(i.USBDCDConfigDescGetNum)
    i.USBDCDConfigDescGetSize                0x0000d100   Section        0  usbdcdesc.o(i.USBDCDConfigDescGetSize)
    i.USBDCDConfigGetInterface               0x0000d122   Section        0  usbdcdesc.o(i.USBDCDConfigGetInterface)
    i.USBDCDConfigGetInterfaceEndpoint       0x0000d1de   Section        0  usbdcdesc.o(i.USBDCDConfigGetInterfaceEndpoint)
    i.USBDCDDeviceInfoInit                   0x0000d23c   Section        0  usbdenum.o(i.USBDCDDeviceInfoInit)
    i.USBDCDFeatureGet                       0x0000d280   Section        0  usbdenum.o(i.USBDCDFeatureGet)
    i.USBDCDInit                             0x0000d298   Section        0  usbdenum.o(i.USBDCDInit)
    i.USBDCDRequestDataEP0                   0x0000d440   Section        0  usbdenum.o(i.USBDCDRequestDataEP0)
    i.USBDCDSendDataEP0                      0x0000d454   Section        0  usbdenum.o(i.USBDCDSendDataEP0)
    i.USBDCDStallEP0                         0x0000d468   Section        0  usbdenum.o(i.USBDCDStallEP0)
    i.USBDClearFeature                       0x0000d484   Section        0  usbdenum.o(i.USBDClearFeature)
    USBDClearFeature                         0x0000d485   Thumb Code   156  usbdenum.o(i.USBDClearFeature)
    i.USBDEP0StateTx                         0x0000d528   Section        0  usbdenum.o(i.USBDEP0StateTx)
    USBDEP0StateTx                           0x0000d529   Thumb Code   104  usbdenum.o(i.USBDEP0StateTx)
    i.USBDEP0StateTxConfig                   0x0000d59c   Section        0  usbdenum.o(i.USBDEP0StateTxConfig)
    USBDEP0StateTxConfig                     0x0000d59d   Thumb Code   358  usbdenum.o(i.USBDEP0StateTxConfig)
    i.USBDGetConfiguration                   0x0000d710   Section        0  usbdenum.o(i.USBDGetConfiguration)
    USBDGetConfiguration                     0x0000d711   Thumb Code    46  usbdenum.o(i.USBDGetConfiguration)
    i.USBDGetDescriptor                      0x0000d744   Section        0  usbdenum.o(i.USBDGetDescriptor)
    USBDGetDescriptor                        0x0000d745   Thumb Code   354  usbdenum.o(i.USBDGetDescriptor)
    i.USBDGetInterface                       0x0000d8b4   Section        0  usbdenum.o(i.USBDGetInterface)
    USBDGetInterface                         0x0000d8b5   Thumb Code    82  usbdenum.o(i.USBDGetInterface)
    i.USBDGetStatus                          0x0000d910   Section        0  usbdenum.o(i.USBDGetStatus)
    USBDGetStatus                            0x0000d911   Thumb Code   124  usbdenum.o(i.USBDGetStatus)
    i.USBDMAChannelAddressSet                0x0000d994   Section        0  usb.o(i.USBDMAChannelAddressSet)
    i.USBDMAChannelConfigSet                 0x0000d99e   Section        0  usb.o(i.USBDMAChannelConfigSet)
    i.USBDMAChannelCountSet                  0x0000d9b4   Section        0  usb.o(i.USBDMAChannelCountSet)
    i.USBDMAChannelDisable                   0x0000d9be   Section        0  usb.o(i.USBDMAChannelDisable)
    i.USBDMAChannelEnable                    0x0000d9d0   Section        0  usb.o(i.USBDMAChannelEnable)
    i.USBDMAChannelIntDisable                0x0000d9e2   Section        0  usb.o(i.USBDMAChannelIntDisable)
    i.USBDMAChannelIntEnable                 0x0000d9f4   Section        0  usb.o(i.USBDMAChannelIntEnable)
    i.USBDMAChannelIntStatus                 0x0000da06   Section        0  usb.o(i.USBDMAChannelIntStatus)
    i.USBDMAChannelStatus                    0x0000da0c   Section        0  usb.o(i.USBDMAChannelStatus)
    i.USBDReadAndDispatchRequest             0x0000da1c   Section        0  usbdenum.o(i.USBDReadAndDispatchRequest)
    USBDReadAndDispatchRequest               0x0000da1d   Thumb Code   104  usbdenum.o(i.USBDReadAndDispatchRequest)
    i.USBDSetAddress                         0x0000da98   Section        0  usbdenum.o(i.USBDSetAddress)
    USBDSetAddress                           0x0000da99   Thumb Code    30  usbdenum.o(i.USBDSetAddress)
    i.USBDSetConfiguration                   0x0000dabc   Section        0  usbdenum.o(i.USBDSetConfiguration)
    USBDSetConfiguration                     0x0000dabd   Thumb Code   152  usbdenum.o(i.USBDSetConfiguration)
    i.USBDSetDescriptor                      0x0000db60   Section        0  usbdenum.o(i.USBDSetDescriptor)
    USBDSetDescriptor                        0x0000db61   Thumb Code    32  usbdenum.o(i.USBDSetDescriptor)
    i.USBDSetFeature                         0x0000db88   Section        0  usbdenum.o(i.USBDSetFeature)
    USBDSetFeature                           0x0000db89   Thumb Code   122  usbdenum.o(i.USBDSetFeature)
    i.USBDSetInterface                       0x0000dc0c   Section        0  usbdenum.o(i.USBDSetInterface)
    USBDSetInterface                         0x0000dc0d   Thumb Code   176  usbdenum.o(i.USBDSetInterface)
    i.USBDSyncFrame                          0x0000dcc8   Section        0  usbdenum.o(i.USBDSyncFrame)
    USBDSyncFrame                            0x0000dcc9   Thumb Code    32  usbdenum.o(i.USBDSyncFrame)
    i.USBDescGet                             0x0000dcf0   Section        0  usbdesc.o(i.USBDescGet)
    i.USBDescGetNum                          0x0000dd26   Section        0  usbdesc.o(i.USBDescGetNum)
    i.USBDevAddrSet                          0x0000dd54   Section        0  usb.o(i.USBDevAddrSet)
    i.USBDevConnect                          0x0000dd58   Section        0  usb.o(i.USBDevConnect)
    i.USBDevDisconnect                       0x0000dd62   Section        0  usb.o(i.USBDevDisconnect)
    i.USBDevEndpointConfigSet                0x0000dd6c   Section        0  usb.o(i.USBDevEndpointConfigSet)
    i.USBDevEndpointDataAck                  0x0000ddf4   Section        0  usb.o(i.USBDevEndpointDataAck)
    i.USBDevEndpointStall                    0x0000de18   Section        0  usb.o(i.USBDevEndpointStall)
    i.USBDevEndpointStallClear               0x0000de4c   Section        0  usb.o(i.USBDevEndpointStallClear)
    i.USBDevEndpointStatusClear              0x0000de96   Section        0  usb.o(i.USBDevEndpointStatusClear)
    i.USBDevLPMConfig                        0x0000def4   Section        0  usb.o(i.USBDevLPMConfig)
    i.USBDevLPMDisable                       0x0000defa   Section        0  usb.o(i.USBDevLPMDisable)
    i.USBDevLPMEnable                        0x0000df08   Section        0  usb.o(i.USBDevLPMEnable)
    i.USBDevMode                             0x0000df16   Section        0  usb.o(i.USBDevMode)
    i.USBDeviceConfig                        0x0000df20   Section        0  usbdconfig.o(i.USBDeviceConfig)
    i.USBDeviceConfigAlternate               0x0000e0c0   Section        0  usbdconfig.o(i.USBDeviceConfigAlternate)
    i.USBDeviceEnumHandler                   0x0000e188   Section        0  usbdenum.o(i.USBDeviceEnumHandler)
    i.USBDeviceIntHandlerInternal            0x0000e274   Section        0  usbdenum.o(i.USBDeviceIntHandlerInternal)
    i.USBDeviceResumeTickHandler             0x0000e40c   Section        0  usbdenum.o(i.USBDeviceResumeTickHandler)
    i.USBEndpointDMAChannel                  0x0000e464   Section        0  usb.o(i.USBEndpointDMAChannel)
    i.USBEndpointDMAConfigSet                0x0000e47e   Section        0  usb.o(i.USBEndpointDMAConfigSet)
    i.USBEndpointDMADisable                  0x0000e4d4   Section        0  usb.o(i.USBEndpointDMADisable)
    i.USBEndpointDMAEnable                   0x0000e4f8   Section        0  usb.o(i.USBEndpointDMAEnable)
    i.USBEndpointDataAvail                   0x0000e51c   Section        0  usb.o(i.USBEndpointDataAvail)
    i.USBEndpointDataGet                     0x0000e53a   Section        0  usb.o(i.USBEndpointDataGet)
    i.USBEndpointDataPut                     0x0000e58e   Section        0  usb.o(i.USBEndpointDataPut)
    i.USBEndpointDataSend                    0x0000e5c8   Section        0  usb.o(i.USBEndpointDataSend)
    i.USBEndpointPacketCountSet              0x0000e5f8   Section        0  usb.o(i.USBEndpointPacketCountSet)
    i.USBEndpointStatus                      0x0000e604   Section        0  usb.o(i.USBEndpointStatus)
    i.USBFIFOAddrGet                         0x0000e614   Section        0  usb.o(i.USBFIFOAddrGet)
    i.USBFIFOConfigSet                       0x0000e61c   Section        0  usb.o(i.USBFIFOConfigSet)
    i.USBHostResume                          0x0000e65c   Section        0  usb.o(i.USBHostResume)
    i.USBIntEnableControl                    0x0000e670   Section        0  usb.o(i.USBIntEnableControl)
    i.USBIntEnableEndpoint                   0x0000e69c   Section        0  usb.o(i.USBIntEnableEndpoint)
    i.USBIntRegister                         0x0000e6b4   Section        0  usb.o(i.USBIntRegister)
    i.USBIntStatusControl                    0x0000e6f8   Section        0  usb.o(i.USBIntStatusControl)
    i.USBIntStatusEndpoint                   0x0000e734   Section        0  usb.o(i.USBIntStatusEndpoint)
    i.USBLPMIntEnable                        0x0000e73e   Section        0  usb.o(i.USBLPMIntEnable)
    i.USBLPMIntStatus                        0x0000e74a   Section        0  usb.o(i.USBLPMIntStatus)
    i.USBLibDMAInit                          0x0000e750   Section        0  usbdma.o(i.USBLibDMAInit)
    i.USBOTGMode                             0x0000e8ac   Section        0  usb.o(i.USBOTGMode)
    i.USBRingBufAdvanceRead                  0x0000e8b4   Section        0  usbringbuf.o(i.USBRingBufAdvanceRead)
    i.USBRingBufAdvanceWrite                 0x0000e8fa   Section        0  usbringbuf.o(i.USBRingBufAdvanceWrite)
    i.USBRingBufContigFree                   0x0000e94e   Section        0  usbringbuf.o(i.USBRingBufContigFree)
    i.USBRingBufContigUsed                   0x0000e96c   Section        0  usbringbuf.o(i.USBRingBufContigUsed)
    i.USBRingBufFlush                        0x0000e97c   Section        0  usbringbuf.o(i.USBRingBufFlush)
    i.USBRingBufFree                         0x0000e996   Section        0  usbringbuf.o(i.USBRingBufFree)
    i.USBRingBufInit                         0x0000e9ac   Section        0  usbringbuf.o(i.USBRingBufInit)
    i.USBRingBufRead                         0x0000e9b8   Section        0  usbringbuf.o(i.USBRingBufRead)
    i.USBRingBufUsed                         0x0000ea0a   Section        0  usbringbuf.o(i.USBRingBufUsed)
    i.USBRingBufWrite                        0x0000ea1e   Section        0  usbringbuf.o(i.USBRingBufWrite)
    i.USBStackModeSet                        0x0000ea70   Section        0  usbmode.o(i.USBStackModeSet)
    i.USBULPIDisable                         0x0000ea8c   Section        0  usb.o(i.USBULPIDisable)
    i.USBULPIEnable                          0x0000ea9a   Section        0  usb.o(i.USBULPIEnable)
    i.USBULPIRegRead                         0x0000eaa8   Section        0  usb.o(i.USBULPIRegRead)
    i.USBULPIRegWrite                        0x0000eac8   Section        0  usb.o(i.USBULPIRegWrite)
    i.WCXY_Acc_Get_Task                      0x0000eae8   Section        0  drv_gps.o(i.WCXY_Acc_Get_Task)
    i.WCZ_Acc_Get_Task                       0x0000eb3c   Section        0  ano_flightdatacal.o(i.WCZ_Acc_Get_Task)
    i.WCZ_Data_Calc                          0x0000eb6c   Section        0  ano_motioncal.o(i.WCZ_Data_Calc)
    i.WCZ_Data_Reset                         0x0000edc4   Section        0  ano_motioncal.o(i.WCZ_Data_Reset)
    i.WCZ_Fus_Task                           0x0000ee1c   Section        0  ano_flightdatacal.o(i.WCZ_Fus_Task)
    i._GPIOIntNumberGet                      0x0000f01c   Section        0  gpio.o(i._GPIOIntNumberGet)
    _GPIOIntNumberGet                        0x0000f01d   Thumb Code    62  gpio.o(i._GPIOIntNumberGet)
    i.__scatterload_copy                     0x0000f06c   Section       14  handlers.o(i.__scatterload_copy)
    i.__scatterload_null                     0x0000f07a   Section        2  handlers.o(i.__scatterload_null)
    i.__scatterload_zeroinit                 0x0000f07c   Section       14  handlers.o(i.__scatterload_zeroinit)
    i.a2w_3d_trans                           0x0000f08c   Section        0  ano_imu.o(i.a2w_3d_trans)
    i.ak8975_Trig                            0x0000f0ec   Section        0  drv_ak8975.o(i.ak8975_Trig)
    ak8975_Trig                              0x0000f0ed   Thumb Code    28  drv_ak8975.o(i.ak8975_Trig)
    i.ak8975_enable                          0x0000f108   Section        0  drv_ak8975.o(i.ak8975_enable)
    ak8975_enable                            0x0000f109   Thumb Code    42  drv_ak8975.o(i.ak8975_enable)
    i.calculate_RPY                          0x0000f138   Section        0  ano_imu.o(i.calculate_RPY)
    i.ch_watch_dog                           0x0000f264   Section        0  ano_rc.o(i.ch_watch_dog)
    ch_watch_dog                             0x0000f265   Thumb Code    72  ano_rc.o(i.ch_watch_dog)
    i.ch_watch_dog_feed                      0x0000f2b4   Section        0  ano_rc.o(i.ch_watch_dog_feed)
    i.ctrl_parameter_change_task             0x0000f2d8   Section        0  ano_flightctrl.o(i.ctrl_parameter_change_task)
    i.data_save                              0x0000f2fc   Section        0  ano_fcdata.o(i.data_save)
    i.fail_safe                              0x0000f31c   Section        0  ano_rc.o(i.fail_safe)
    i.fail_safe_check                        0x0000f374   Section        0  ano_rc.o(i.fail_safe_check)
    i.fast_atan2                             0x0000f438   Section        0  ano_math.o(i.fast_atan2)
    i.fix_inte_filter                        0x0000f5b4   Section        0  ano_filter.o(i.fix_inte_filter)
    i.gps_baudrate_config                    0x0000f634   Section        0  drv_gps.o(i.gps_baudrate_config)
    i.gps_config                             0x0000f65c   Section        0  drv_gps.o(i.gps_config)
    i.h2w_2d_trans                           0x0000f69c   Section        0  ano_imu.o(i.h2w_2d_trans)
    i.iDMAUSBArbSizeSet                      0x0000f6da   Section        0  usbdma.o(i.iDMAUSBArbSizeSet)
    iDMAUSBArbSizeSet                        0x0000f6db   Thumb Code     2  usbdma.o(i.iDMAUSBArbSizeSet)
    i.iDMAUSBChannelAllocate                 0x0000f6dc   Section        0  usbdma.o(i.iDMAUSBChannelAllocate)
    iDMAUSBChannelAllocate                   0x0000f6dd   Thumb Code   132  usbdma.o(i.iDMAUSBChannelAllocate)
    i.iDMAUSBChannelDisable                  0x0000f760   Section        0  usbdma.o(i.iDMAUSBChannelDisable)
    iDMAUSBChannelDisable                    0x0000f761   Thumb Code    52  usbdma.o(i.iDMAUSBChannelDisable)
    i.iDMAUSBChannelEnable                   0x0000f794   Section        0  usbdma.o(i.iDMAUSBChannelEnable)
    iDMAUSBChannelEnable                     0x0000f795   Thumb Code    82  usbdma.o(i.iDMAUSBChannelEnable)
    i.iDMAUSBChannelIntDisable               0x0000f7e6   Section        0  usbdma.o(i.iDMAUSBChannelIntDisable)
    iDMAUSBChannelIntDisable                 0x0000f7e7   Thumb Code     8  usbdma.o(i.iDMAUSBChannelIntDisable)
    i.iDMAUSBChannelIntEnable                0x0000f7ee   Section        0  usbdma.o(i.iDMAUSBChannelIntEnable)
    iDMAUSBChannelIntEnable                  0x0000f7ef   Thumb Code     8  usbdma.o(i.iDMAUSBChannelIntEnable)
    i.iDMAUSBChannelRelease                  0x0000f7f6   Section        0  usbdma.o(i.iDMAUSBChannelRelease)
    iDMAUSBChannelRelease                    0x0000f7f7   Thumb Code    62  usbdma.o(i.iDMAUSBChannelRelease)
    i.iDMAUSBChannelStatus                   0x0000f834   Section        0  usbdma.o(i.iDMAUSBChannelStatus)
    iDMAUSBChannelStatus                     0x0000f835   Thumb Code    56  usbdma.o(i.iDMAUSBChannelStatus)
    i.iDMAUSBIntStatus                       0x0000f86c   Section        0  usbdma.o(i.iDMAUSBIntStatus)
    iDMAUSBIntStatus                         0x0000f86d   Thumb Code     6  usbdma.o(i.iDMAUSBIntStatus)
    i.iDMAUSBTransfer                        0x0000f872   Section        0  usbdma.o(i.iDMAUSBTransfer)
    iDMAUSBTransfer                          0x0000f873   Thumb Code   244  usbdma.o(i.iDMAUSBTransfer)
    i.iDMAUSBUnitSizeSet                     0x0000f966   Section        0  usbdma.o(i.iDMAUSBUnitSizeSet)
    iDMAUSBUnitSizeSet                       0x0000f967   Thumb Code     2  usbdma.o(i.iDMAUSBUnitSizeSet)
    i.icm20602_INT_Config                    0x0000f968   Section        0  drv_icm20602.o(i.icm20602_INT_Config)
    icm20602_INT_Config                      0x0000f969   Thumb Code     8  drv_icm20602.o(i.icm20602_INT_Config)
    i.icm20602_enable                        0x0000f970   Section        0  drv_icm20602.o(i.icm20602_enable)
    icm20602_enable                          0x0000f971   Thumb Code    46  drv_icm20602.o(i.icm20602_enable)
    i.icm20602_readbuf                       0x0000f99e   Section        0  drv_icm20602.o(i.icm20602_readbuf)
    icm20602_readbuf                         0x0000f99f   Thumb Code    38  drv_icm20602.o(i.icm20602_readbuf)
    i.icm20602_setIntEnabled                 0x0000f9c4   Section        0  drv_icm20602.o(i.icm20602_setIntEnabled)
    icm20602_setIntEnabled                   0x0000f9c5   Thumb Code    58  drv_icm20602.o(i.icm20602_setIntEnabled)
    i.icm20602_writeBit                      0x0000f9fe   Section        0  drv_icm20602.o(i.icm20602_writeBit)
    icm20602_writeBit                        0x0000f9ff   Thumb Code    60  drv_icm20602.o(i.icm20602_writeBit)
    i.icm20602_writebyte                     0x0000fa3a   Section        0  drv_icm20602.o(i.icm20602_writebyte)
    icm20602_writebyte                       0x0000fa3b   Thumb Code    36  drv_icm20602.o(i.icm20602_writebyte)
    i.inte_fix_filter                        0x0000fa5e   Section        0  ano_filter.o(i.inte_fix_filter)
    i.land_discriminat                       0x0000fae8   Section        0  ano_flightctrl.o(i.land_discriminat)
    i.ledBreath                              0x0000fbb0   Section        0  ano_led.o(i.ledBreath)
    ledBreath                                0x0000fbb1   Thumb Code   324  ano_led.o(i.ledBreath)
    i.ledFlash                               0x0000fd04   Section        0  ano_led.o(i.ledFlash)
    ledFlash                                 0x0000fd05   Thumb Code    62  ano_led.o(i.ledFlash)
    i.ledOnOff                               0x0000fd48   Section        0  ano_led.o(i.ledOnOff)
    ledOnOff                                 0x0000fd49   Thumb Code    54  ano_led.o(i.ledOnOff)
    i.length_limit                           0x0000fd88   Section        0  ano_math.o(i.length_limit)
    i.main                                   0x0000fe18   Section        0  main.o(i.main)
    i.motionless_check                       0x0000fe30   Section        0  ano_sensor_basic.o(i.motionless_check)
    i.mpu_auto_az                            0x0000ff58   Section        0  ano_sensor_basic.o(i.mpu_auto_az)
    i.my_abs                                 0x0001004c   Section        0  ano_math.o(i.my_abs)
    i.my_deadzone                            0x00010066   Section        0  ano_math.o(i.my_deadzone)
    i.my_sqrt                                0x0001009c   Section        0  ano_math.o(i.my_sqrt)
    i.my_sqrt_reciprocal                     0x000100b0   Section        0  ano_math.o(i.my_sqrt_reciprocal)
    i.one_key_land                           0x00010100   Section        0  ano_flightctrl.o(i.one_key_land)
    i.one_key_take_off                       0x0001010c   Section        0  ano_flightctrl.o(i.one_key_take_off)
    i.one_key_take_off_task                  0x00010134   Section        0  ano_flightctrl.o(i.one_key_take_off_task)
    i.spl0601_get_calib_param                0x00010180   Section        0  drv_spl06.o(i.spl0601_get_calib_param)
    i.spl0601_get_pressure                   0x0001033c   Section        0  drv_spl06.o(i.spl0601_get_pressure)
    i.spl0601_get_raw_pressure               0x00010418   Section        0  drv_spl06.o(i.spl0601_get_raw_pressure)
    i.spl0601_get_raw_temp                   0x0001047c   Section        0  drv_spl06.o(i.spl0601_get_raw_temp)
    i.spl0601_get_temperature                0x000104e4   Section        0  drv_spl06.o(i.spl0601_get_temperature)
    i.spl0601_rateset                        0x00010578   Section        0  drv_spl06.o(i.spl0601_rateset)
    i.spl0601_read                           0x000106b0   Section        0  drv_spl06.o(i.spl0601_read)
    spl0601_read                             0x000106b1   Thumb Code    36  drv_spl06.o(i.spl0601_read)
    i.spl0601_start_continuous               0x000106d4   Section        0  drv_spl06.o(i.spl0601_start_continuous)
    i.spl0601_write                          0x000106e4   Section        0  drv_spl06.o(i.spl0601_write)
    spl0601_write                            0x000106e5   Thumb Code    32  drv_spl06.o(i.spl0601_write)
    i.spl06_enable                           0x00010704   Section        0  drv_spl06.o(i.spl06_enable)
    spl06_enable                             0x00010705   Thumb Code    42  drv_spl06.o(i.spl06_enable)
    i.stick_function                         0x00010734   Section        0  ano_rc.o(i.stick_function)
    i.stick_function_check                   0x000108b0   Section        0  ano_rc.o(i.stick_function_check)
    i.stick_function_check_longpress         0x000108f2   Section        0  ano_rc.o(i.stick_function_check_longpress)
    i.uDMAChannelAttributeDisable            0x00010918   Section        0  udma.o(i.uDMAChannelAttributeDisable)
    i.uDMAChannelControlSet                  0x00010960   Section        0  udma.o(i.uDMAChannelControlSet)
    i.uDMAChannelDisable                     0x00010980   Section        0  udma.o(i.uDMAChannelDisable)
    i.uDMAChannelEnable                      0x00010994   Section        0  udma.o(i.uDMAChannelEnable)
    i.uDMAChannelModeGet                     0x000109a8   Section        0  udma.o(i.uDMAChannelModeGet)
    i.uDMAChannelTransferSet                 0x000109d0   Section        0  udma.o(i.uDMAChannelTransferSet)
    i.uDMAUSBArbSizeSet                      0x00010a50   Section        0  usbdma.o(i.uDMAUSBArbSizeSet)
    uDMAUSBArbSizeSet                        0x00010a51   Thumb Code   104  usbdma.o(i.uDMAUSBArbSizeSet)
    i.uDMAUSBChannelAllocate                 0x00010ab8   Section        0  usbdma.o(i.uDMAUSBChannelAllocate)
    uDMAUSBChannelAllocate                   0x00010ab9   Thumb Code   184  usbdma.o(i.uDMAUSBChannelAllocate)
    i.uDMAUSBChannelDisable                  0x00010b78   Section        0  usbdma.o(i.uDMAUSBChannelDisable)
    uDMAUSBChannelDisable                    0x00010b79   Thumb Code    88  usbdma.o(i.uDMAUSBChannelDisable)
    i.uDMAUSBChannelEnable                   0x00010bd0   Section        0  usbdma.o(i.uDMAUSBChannelEnable)
    uDMAUSBChannelEnable                     0x00010bd1   Thumb Code   106  usbdma.o(i.uDMAUSBChannelEnable)
    i.uDMAUSBChannelIntDisable               0x00010c3a   Section        0  usbdma.o(i.uDMAUSBChannelIntDisable)
    uDMAUSBChannelIntDisable                 0x00010c3b   Thumb Code     2  usbdma.o(i.uDMAUSBChannelIntDisable)
    i.uDMAUSBChannelIntEnable                0x00010c3c   Section        0  usbdma.o(i.uDMAUSBChannelIntEnable)
    uDMAUSBChannelIntEnable                  0x00010c3d   Thumb Code     2  usbdma.o(i.uDMAUSBChannelIntEnable)
    i.uDMAUSBChannelRelease                  0x00010c3e   Section        0  usbdma.o(i.uDMAUSBChannelRelease)
    uDMAUSBChannelRelease                    0x00010c3f   Thumb Code    90  usbdma.o(i.uDMAUSBChannelRelease)
    i.uDMAUSBChannelStatus                   0x00010c98   Section        0  usbdma.o(i.uDMAUSBChannelStatus)
    uDMAUSBChannelStatus                     0x00010c99   Thumb Code    38  usbdma.o(i.uDMAUSBChannelStatus)
    i.uDMAUSBIntStatus                       0x00010cbe   Section        0  usbdma.o(i.uDMAUSBIntStatus)
    uDMAUSBIntStatus                         0x00010cbf   Thumb Code    52  usbdma.o(i.uDMAUSBIntStatus)
    i.uDMAUSBTransfer                        0x00010cf2   Section        0  usbdma.o(i.uDMAUSBTransfer)
    uDMAUSBTransfer                          0x00010cf3   Thumb Code   200  usbdma.o(i.uDMAUSBTransfer)
    i.uDMAUSBUnitSizeSet                     0x00010dba   Section        0  usbdma.o(i.uDMAUSBUnitSizeSet)
    uDMAUSBUnitSizeSet                       0x00010dbb   Thumb Code    84  usbdma.o(i.uDMAUSBUnitSizeSet)
    i.unlock                                 0x00010e10   Section        0  ano_rc.o(i.unlock)
    i.vec_2_cross_product                    0x00011090   Section        0  ano_math.o(i.vec_2_cross_product)
    i.vec_2_dot_product                      0x000110aa   Section        0  ano_math.o(i.vec_2_dot_product)
    i.w2h_2d_trans                           0x000110c4   Section        0  ano_imu.o(i.w2h_2d_trans)
    .constdata                               0x00011104   Section      216  usb_serial_structs.o(.constdata)
    .constdata                               0x000111dc   Section      143  drv_gps.o(.constdata)
    .constdata                               0x0001126b   Section      322  drv_up_flow.o(.constdata)
    Sensor_cfg                               0x0001126b   Data         322  drv_up_flow.o(.constdata)
    .constdata                               0x000113b0   Section     1028  ano_math.o(.constdata)
    .constdata                               0x000117b4   Section      552  gpio.o(.constdata)
    g_ppui32GPIOIntMapBlizzard               0x000117b4   Data         192  gpio.o(.constdata)
    g_ppui32GPIOIntMapSnowflake              0x00011874   Data         216  gpio.o(.constdata)
    g_pui32GPIOBaseAddrs                     0x0001194c   Data         144  gpio.o(.constdata)
    .constdata                               0x000119dc   Section      596  sysctl.o(.constdata)
    g_pui32VCOFrequencies                    0x000119dc   Data           8  sysctl.o(.constdata)
    g_pui32Xtals                             0x000119e4   Data         108  sysctl.o(.constdata)
    g_pppui32XTALtoVCO                       0x00011a50   Data         432  sysctl.o(.constdata)
    g_sXTALtoMEMTIM                          0x00011c00   Data          48  sysctl.o(.constdata)
    .constdata                               0x00011c30   Section      160  timer.o(.constdata)
    g_ppui32TimerIntMap                      0x00011c30   Data          96  timer.o(.constdata)
    g_ppui32TimerIntMapSnowflake             0x00011c90   Data          64  timer.o(.constdata)
    .constdata                               0x00011cd0   Section      128  uart.o(.constdata)
    g_ppui32UARTIntMap                       0x00011cd0   Data          64  uart.o(.constdata)
    g_ppui32UARTIntMapSnowflake              0x00011d10   Data          64  uart.o(.constdata)
    .constdata                               0x00011d50   Section        8  usbdcdc.o(.constdata)
    .constdata                               0x00011d58   Section        8  usbdcdc.o(.constdata)
    .constdata                               0x00011d60   Section       35  usbdcdc.o(.constdata)
    .constdata                               0x00011d84   Section        8  usbdcdc.o(.constdata)
    .constdata                               0x00011d8c   Section       23  usbdcdc.o(.constdata)
    .constdata                               0x00011da4   Section        8  usbdcdc.o(.constdata)
    .constdata                               0x00011dac   Section       23  usbdcdc.o(.constdata)
    .constdata                               0x00011dc4   Section        8  usbdcdc.o(.constdata)
    .constdata                               0x00011dcc   Section        8  usbdcdc.o(.constdata)
    .constdata                               0x00011dd4   Section        8  usbdcdc.o(.constdata)
    .constdata                               0x00011ddc   Section        8  usbdcdc.o(.constdata)
    .constdata                               0x00011de4   Section        8  usbdcdc.o(.constdata)
    .constdata                               0x00011dec   Section       64  usbdcdc.o(.constdata)
    .constdata                               0x00011e2c   Section      268  interrupt.o(.constdata)
    g_pui32Priority                          0x00011e2c   Data          32  interrupt.o(.constdata)
    g_pui32Regs                              0x00011e4c   Data         156  interrupt.o(.constdata)
    g_pui32EnRegs                            0x00011ee8   Data          20  interrupt.o(.constdata)
    g_pui32Dii16Regs                         0x00011efc   Data          20  interrupt.o(.constdata)
    g_pui32PendRegs                          0x00011f10   Data          20  interrupt.o(.constdata)
    g_pui32UnpendRegs                        0x00011f24   Data          20  interrupt.o(.constdata)
    .constdata                               0x00011f38   Section       52  usbdenum.o(.constdata)
    g_psUSBDStdRequests                      0x00011f38   Data          52  usbdenum.o(.constdata)
    .data                                    0x20000000   Section       80  ano_scheduler.o(.data)
    lt0_run_flag                             0x20000000   Data           1  ano_scheduler.o(.data)
    circle_cnt                               0x20000001   Data           2  ano_scheduler.o(.data)
    ztt                                      0x20000004   Data           4  ano_scheduler.o(.data)
    ttz                                      0x20000008   Data           4  ano_scheduler.o(.data)
    lyz                                      0x2000000c   Data           4  ano_scheduler.o(.data)
    wcc                                      0x20000010   Data           4  ano_scheduler.o(.data)
    sched_tasks                              0x20000014   Data          60  ano_scheduler.o(.data)
    .data                                    0x20000050   Section        4  ano_parameter.o(.data)
    .data                                    0x20000054   Section        5  ano_flyctrl.o(.data)
    val                                      0x20000054   Data           2  ano_flyctrl.o(.data)
    spd                                      0x20000056   Data           2  ano_flyctrl.o(.data)
    cmd_take_off_f                           0x20000058   Data           1  ano_flyctrl.o(.data)
    .data                                    0x2000005a   Section       34  ano_dt.o(.data)
    DT_data_cnt                              0x2000005c   Data           1  ano_dt.o(.data)
    ano_dt_data_ok                           0x2000005d   Data           1  ano_dt.o(.data)
    DT_data_cnt_USB                          0x2000005e   Data           1  ano_dt.o(.data)
    ano_dt_data_ok_USB                       0x2000005f   Data           1  ano_dt.o(.data)
    cnt                                      0x20000062   Data           2  ano_dt.o(.data)
    senser_cnt                               0x20000064   Data           2  ano_dt.o(.data)
    senser2_cnt                              0x20000066   Data           2  ano_dt.o(.data)
    user_cnt                                 0x20000068   Data           2  ano_dt.o(.data)
    status_cnt                               0x2000006a   Data           2  ano_dt.o(.data)
    rcdata_cnt                               0x2000006c   Data           2  ano_dt.o(.data)
    motopwm_cnt                              0x2000006e   Data           2  ano_dt.o(.data)
    power_cnt                                0x20000070   Data           2  ano_dt.o(.data)
    speed_cnt                                0x20000072   Data           2  ano_dt.o(.data)
    sensorsta_cnt                            0x20000074   Data           2  ano_dt.o(.data)
    location_cnt                             0x20000076   Data           2  ano_dt.o(.data)
    _data_len                                0x20000078   Data           1  ano_dt.o(.data)
    state                                    0x20000079   Data           1  ano_dt.o(.data)
    _data_len                                0x2000007a   Data           1  ano_dt.o(.data)
    state                                    0x2000007b   Data           1  ano_dt.o(.data)
    .data                                    0x2000007c   Section       31  ano_rc.o(.data)
    RC_IN_MODE                               0x2000007c   Data           1  ano_rc.o(.data)
    cnt                                      0x20000098   Data           2  ano_rc.o(.data)
    cnt2                                     0x2000009a   Data           1  ano_rc.o(.data)
    .data                                    0x2000009c   Section       39  ano_led.o(.data)
    led_cnt                                  0x200000b0   Data           8  ano_led.o(.data)
    dir                                      0x200000b8   Data           4  ano_led.o(.data)
    tim_tmp                                  0x200000bc   Data           2  ano_led.o(.data)
    timtmp                                   0x200000be   Data           2  ano_led.o(.data)
    cnttmp                                   0x200000c0   Data           1  ano_led.o(.data)
    statmp                                   0x200000c1   Data           1  ano_led.o(.data)
    modtmp                                   0x200000c2   Data           1  ano_led.o(.data)
    .data                                    0x200000c4   Section       17  ano_usb.o(.data)
    usb_linecoding                           0x200000c4   Data           7  ano_usb.o(.data)
    g_bUSBConfigured                         0x200000d4   Data           1  ano_usb.o(.data)
    .data                                    0x200000d8   Section       48  ano_of_decofusion.o(.data)
    rad_ps_lpf                               0x200000f4   Data           8  ano_of_decofusion.o(.data)
    offline_delay_time_s                     0x200000fc   Data           4  ano_of_decofusion.o(.data)
    F_KP                                     0x20000100   Data           4  ano_of_decofusion.o(.data)
    F_KI                                     0x20000104   Data           4  ano_of_decofusion.o(.data)
    .data                                    0x20000108   Section       24  ano_opmv_cbtracking_ctrl.o(.data)
    target_loss_hold_time                    0x20000108   Data           2  ano_opmv_cbtracking_ctrl.o(.data)
    ref_carrier_velocity                     0x2000010c   Data           8  ano_opmv_cbtracking_ctrl.o(.data)
    relative_height_cm_valid                 0x20000114   Data           4  ano_opmv_cbtracking_ctrl.o(.data)
    g_pos_err_old                            0x20000118   Data           8  ano_opmv_cbtracking_ctrl.o(.data)
    .data                                    0x20000120   Section       28  ano_opmv_linetracking_ctrl.o(.data)
    line_loss_hold_time                      0x20000120   Data           2  ano_opmv_linetracking_ctrl.o(.data)
    lt_decou_pos_pixel_lpf                   0x20000124   Data           8  ano_opmv_linetracking_ctrl.o(.data)
    step_pro_sta                             0x2000012c   Data           1  ano_opmv_linetracking_ctrl.o(.data)
    relative_height_cm_valid                 0x20000130   Data           4  ano_opmv_linetracking_ctrl.o(.data)
    lt_gnd_pos_err_old                       0x20000134   Data           4  ano_opmv_linetracking_ctrl.o(.data)
    confirm_cnt                              0x20000138   Data           1  ano_opmv_linetracking_ctrl.o(.data)
    elapsed_time_ms                          0x2000013a   Data           2  ano_opmv_linetracking_ctrl.o(.data)
    .data                                    0x2000013c   Section        3  ano_opmv_ctrl.o(.data)
    .data                                    0x20000140   Section      208  usb_serial_structs.o(.data)
    .data                                    0x20000210   Section        9  drv_bsp.o(.data)
    SysRunTimeMs                             0x20000210   Data           8  drv_bsp.o(.data)
    .data                                    0x2000021c   Section        4  drv_adc.o(.data)
    .data                                    0x20000220   Section       18  drv_rcin.o(.data)
    Chan                                     0x20000221   Data           1  drv_rcin.o(.data)
    PeriodVal1                               0x20000224   Data           4  drv_rcin.o(.data)
    PeriodVal2                               0x20000228   Data           4  drv_rcin.o(.data)
    PulseHigh                                0x2000022c   Data           4  drv_rcin.o(.data)
    i                                        0x20000230   Data           1  drv_rcin.o(.data)
    DataCnt                                  0x20000231   Data           1  drv_rcin.o(.data)
    .data                                    0x20000232   Section       10  drv_uart.o(.data)
    .data                                    0x2000023c   Section        1  drv_icm20602.o(.data)
    ICM_ID                                   0x2000023c   Data           1  drv_icm20602.o(.data)
    .data                                    0x2000023d   Section        6  drv_ak8975.o(.data)
    ak8975_buf                               0x2000023d   Data           6  drv_ak8975.o(.data)
    .data                                    0x20000244   Section       32  drv_spl06.o(.data)
    p_spl0601                                0x20000244   Data           4  drv_spl06.o(.data)
    .data                                    0x20000264   Section       25  drv_gps.o(.data)
    home_locked                              0x20000271   Data           1  drv_gps.o(.data)
    update_cnt                               0x20000272   Data           1  drv_gps.o(.data)
    err_N_step                               0x20000274   Data           4  drv_gps.o(.data)
    err_E_step                               0x20000278   Data           4  drv_gps.o(.data)
    last_gps_heart                           0x2000027c   Data           1  drv_gps.o(.data)
    .data                                    0x20000280   Section       78  ano_of.o(.data)
    _data_cnt                                0x200002c4   Data           1  ano_of.o(.data)
    anoof_data_ok                            0x200002c5   Data           1  ano_of.o(.data)
    of_check_f                               0x200002c6   Data           2  ano_of.o(.data)
    of_check_cnt                             0x200002c8   Data           4  ano_of.o(.data)
    _data_len                                0x200002cc   Data           1  ano_of.o(.data)
    state                                    0x200002cd   Data           1  ano_of.o(.data)
    .data                                    0x200002d0   Section       19  drv_heating.o(.data)
    temperature_cnt                          0x200002e0   Data           2  drv_heating.o(.data)
    thermostatic_en                          0x200002e2   Data           1  drv_heating.o(.data)
    .data                                    0x200002e4   Section        4  drv_openmv.o(.data)
    len                                      0x200002e6   Data           1  drv_openmv.o(.data)
    rec_sta                                  0x200002e7   Data           1  drv_openmv.o(.data)
    .data                                    0x200002e8   Section        4  drv_up_flow.o(.data)
    in_p                                     0x200002ea   Data           1  drv_up_flow.o(.data)
    head_p                                   0x200002eb   Data           1  drv_up_flow.o(.data)
    .data                                    0x200002ec   Section        6  drv_laser.o(.data)
    sta                                      0x200002f0   Data           1  drv_laser.o(.data)
    cnt                                      0x200002f1   Data           1  drv_laser.o(.data)
    .data                                    0x200002f2   Section        8  ano_fcdata.o(.data)
    .data                                    0x200002fc   Section      340  ano_imu.o(.data)
    q0q1                                     0x200003e4   Data           4  ano_imu.o(.data)
    q0q2                                     0x200003e8   Data           4  ano_imu.o(.data)
    q1q1                                     0x200003ec   Data           4  ano_imu.o(.data)
    q1q3                                     0x200003f0   Data           4  ano_imu.o(.data)
    q2q2                                     0x200003f4   Data           4  ano_imu.o(.data)
    q2q3                                     0x200003f8   Data           4  ano_imu.o(.data)
    q3q3                                     0x200003fc   Data           4  ano_imu.o(.data)
    q1q2                                     0x20000400   Data           4  ano_imu.o(.data)
    q0q3                                     0x20000404   Data           4  ano_imu.o(.data)
    mag_yaw_err                              0x20000408   Data           4  ano_imu.o(.data)
    mag_err_dot_prudoct                      0x2000040c   Data           4  ano_imu.o(.data)
    imu_reset_val                            0x20000410   Data           4  ano_imu.o(.data)
    reset_cnt                                0x20000414   Data           2  ano_imu.o(.data)
    mag_2d_w_vec                             0x20000430   Data          16  ano_imu.o(.data)
    t_temp                                   0x20000440   Data           4  ano_imu.o(.data)
    kp_use                                   0x20000444   Data           4  ano_imu.o(.data)
    ki_use                                   0x20000448   Data           4  ano_imu.o(.data)
    mkp_use                                  0x2000044c   Data           4  ano_imu.o(.data)
    .data                                    0x20000450   Section       73  ano_sensor_basic.o(.data)
    off_cnt                                  0x20000498   Data           1  ano_sensor_basic.o(.data)
    .data                                    0x2000049c   Section       29  ano_motioncal.o(.data)
    wcz_acc_deadzone                         0x200004b0   Data           4  ano_motioncal.o(.data)
    wcz_acc                                  0x200004b4   Data           4  ano_motioncal.o(.data)
    cyc_xn                                   0x200004b8   Data           1  ano_motioncal.o(.data)
    .data                                    0x200004bc   Section       14  ano_altctrl.o(.data)
    auto_taking_off_speed                    0x200004bc   Data           2  ano_altctrl.o(.data)
    err_i_comp                               0x200004c0   Data           4  ano_altctrl.o(.data)
    w_acc_z_lpf                              0x200004c4   Data           4  ano_altctrl.o(.data)
    take_off_ok_cnt                          0x200004c8   Data           2  ano_altctrl.o(.data)
    .data                                    0x200004cc   Section       16  ano_attctrl.o(.data)
    max_yaw_speed                            0x200004cc   Data           4  ano_attctrl.o(.data)
    set_yaw_av_tmp                           0x200004d0   Data           4  ano_attctrl.o(.data)
    exp_rol_tmp                              0x200004d4   Data           4  ano_attctrl.o(.data)
    exp_pit_tmp                              0x200004d8   Data           4  ano_attctrl.o(.data)
    .data                                    0x200004dc   Section       44  ano_flightctrl.o(.data)
    one_key_taof_start                       0x200004dc   Data           2  ano_flightctrl.o(.data)
    ld_delay_cnt                             0x200004e8   Data           2  ano_flightctrl.o(.data)
    of_quality_ok                            0x200004ea   Data           1  ano_flightctrl.o(.data)
    of_quality_delay                         0x200004ec   Data           2  ano_flightctrl.o(.data)
    of_alt_ok                                0x200004ee   Data           1  ano_flightctrl.o(.data)
    of_alt_delay                             0x200004f0   Data           2  ano_flightctrl.o(.data)
    of_tof_on_tmp                            0x200004f2   Data           1  ano_flightctrl.o(.data)
    max_speed_lim                            0x200004fc   Data           4  ano_flightctrl.o(.data)
    vel_z_tmp                                0x20000500   Data           8  ano_flightctrl.o(.data)
    .data                                    0x20000508   Section       65  ano_flightdatacal.o(.data)
    reset_imu_f                              0x2000050a   Data           1  ano_flightdatacal.o(.data)
    mag_val                                  0x2000050c   Data           6  ano_flightdatacal.o(.data)
    wcz_f_pause                              0x2000053c   Data           1  ano_flightdatacal.o(.data)
    baro_offset_ok                           0x20000546   Data           1  ano_flightdatacal.o(.data)
    tof_offset_ok                            0x20000547   Data           1  ano_flightdatacal.o(.data)
    cnt                                      0x20000548   Data           1  ano_flightdatacal.o(.data)
    .data                                    0x2000054c   Section       54  ano_locctrl.o(.data)
    mode_f                                   0x2000054c   Data           2  ano_locctrl.o(.data)
    fb_speed_fix                             0x20000550   Data           8  ano_locctrl.o(.data)
    loc_hand_exp_vel                         0x20000578   Data           8  ano_locctrl.o(.data)
    waite_gps_loc_cnt                        0x20000580   Data           2  ano_locctrl.o(.data)
    .data                                    0x20000584   Section       32  ano_magprocess.o(.data)
    max_t                                    0x20000584   Data           6  ano_magprocess.o(.data)
    min_t                                    0x2000058a   Data           6  ano_magprocess.o(.data)
    mag_cal_step                             0x20000598   Data           1  ano_magprocess.o(.data)
    cali_cnt                                 0x2000059a   Data           2  ano_magprocess.o(.data)
    mag_cal_angle                            0x2000059c   Data           8  ano_magprocess.o(.data)
    .data                                    0x200005a4   Section       20  ano_motorctrl.o(.data)
    motor_prepara_cnt                        0x200005b4   Data           2  ano_motorctrl.o(.data)
    .data                                    0x200005b8   Section       12  ano_power.o(.data)
    voltage_f                                0x200005bc   Data           4  ano_power.o(.data)
    voltage_init_ok                          0x200005c0   Data           1  ano_power.o(.data)
    voltage_s16                              0x200005c2   Data           2  ano_power.o(.data)
    .data                                    0x200005c4   Section       29  usbdcdc.o(.data)
    g_ui16MaxPacketSize                      0x200005c4   Data           2  usbdcdc.o(.data)
    .data                                    0x200005e1   Section        8  usbdcdc.o(.data)
    .data                                    0x200005ec   Section       12  usbdcdc.o(.data)
    .data                                    0x200005f8   Section       12  usbdcdc.o(.data)
    .data                                    0x20000604   Section       16  usbdcdc.o(.data)
    .data                                    0x20000614   Section       16  usbdcdc.o(.data)
    .data                                    0x20000624   Section       16  usbmode.o(.data)
    g_iDualMode                              0x20000625   Data           1  usbmode.o(.data)
    g_pfnUSBModeCallback                     0x20000630   Data           4  usbmode.o(.data)
    .data                                    0x20000634   Section       16  usbdenum.o(.data)
    g_ui32PLLDiv                             0x20000634   Data           4  usbdenum.o(.data)
    ui32SOFDivide                            0x20000638   Data           4  usbdenum.o(.data)
    g_ui32ULPISupport                        0x2000063c   Data           4  usbdenum.o(.data)
    .data                                    0x20000644   Section        8  usbtick.o(.data)
    .data                                    0x2000064c   Section        4  usbtick.o(.data)
    vtable                                   0x20000800   Section      620  interrupt.o(vtable)
    g_pfnRAMVectors                          0x20000800   Data         620  interrupt.o(vtable)
    .bss                                     0x20000a6c   Section     2048  ano_parameter.o(.bss)
    .bss                                     0x2000126c   Section       84  ano_flyctrl.o(.bss)
    .bss                                     0x200012c0   Section      770  ano_dt.o(.bss)
    DT_RxBuffer                              0x20001496   Data         100  ano_dt.o(.bss)
    DT_RxBuffer_USB                          0x200014fa   Data         100  ano_dt.o(.bss)
    usbdatarxbuf                             0x2000155e   Data         100  ano_dt.o(.bss)
    .bss                                     0x200015c2   Section       36  ano_rc.o(.bss)
    cwd_cnt                                  0x200015c2   Data          20  ano_rc.o(.bss)
    .bss                                     0x200015e6   Section       15  ano_led.o(.bss)
    .bss                                     0x200015f8   Section       32  ano_programctrl_user.o(.bss)
    .bss                                     0x20001618   Section       84  ano_of_decofusion.o(.bss)
    .bss                                     0x2000166c   Section       64  ano_opmv_cbtracking_ctrl.o(.bss)
    decou_pos_pixel_lpf                      0x2000169c   Data          16  ano_opmv_cbtracking_ctrl.o(.bss)
    .bss                                     0x200016ac   Section       28  ano_opmv_linetracking_ctrl.o(.bss)
    .bss                                     0x200016c8   Section      512  usb_serial_structs.o(.bss)
    .bss                                     0x200018c8   Section       89  drv_rcin.o(.bss)
    SUBS_RawData                             0x20001908   Data          25  drv_rcin.o(.bss)
    .bss                                     0x20001921   Section     1280  drv_uart.o(.bss)
    .bss                                     0x20001e21   Section       14  drv_icm20602.o(.bss)
    .bss                                     0x20001e30   Section       44  drv_spl06.o(.bss)
    spl0601                                  0x20001e30   Data          44  drv_spl06.o(.bss)
    .bss                                     0x20001e60   Section      232  drv_gps.o(.bss)
    .bss                                     0x20001f48   Section       50  ano_of.o(.bss)
    _datatemp                                0x20001f48   Data          50  ano_of.o(.bss)
    .bss                                     0x20001f7c   Section      572  ano_uwb.o(.bss)
    UWB_RxBuffer                             0x20001fb8   Data         256  ano_uwb.o(.bss)
    _rx_buf                                  0x200020b8   Data         256  ano_uwb.o(.bss)
    .bss                                     0x200021b8   Section       12  drv_heating.o(.bss)
    .bss                                     0x200021c4   Section       46  drv_openmv.o(.bss)
    .bss                                     0x200021f2   Section       28  drv_up_flow.o(.bss)
    com_getdata                              0x20002200   Data          14  drv_up_flow.o(.bss)
    .bss                                     0x2000220e   Section        9  drv_laser.o(.bss)
    tmp                                      0x2000220e   Data           9  drv_laser.o(.bss)
    .bss                                     0x20002218   Section      121  ano_fcdata.o(.bss)
    .bss                                     0x20002294   Section       84  ano_imu.o(.bss)
    vec_err                                  0x200022b8   Data          12  ano_imu.o(.bss)
    vec_err_i                                0x200022c4   Data          12  ano_imu.o(.bss)
    mag_val_f                                0x200022d0   Data          12  ano_imu.o(.bss)
    .bss                                     0x200022e8   Section      372  ano_sensor_basic.o(.bss)
    gyr_f                                    0x200023e4   Data          60  ano_sensor_basic.o(.bss)
    acc_f                                    0x20002420   Data          60  ano_sensor_basic.o(.bss)
    .bss                                     0x2000245c   Section       76  ano_motioncal.o(.bss)
    .bss                                     0x200024a8   Section      128  ano_altctrl.o(.bss)
    .bss                                     0x20002528   Section      488  ano_attctrl.o(.bss)
    ct_val                                   0x200026e8   Data          16  ano_attctrl.o(.bss)
    .bss                                     0x20002710   Section       52  ano_flightctrl.o(.bss)
    .bss                                     0x20002744   Section      328  ano_locctrl.o(.bss)
    .bss                                     0x2000288c   Section       16  ano_motorctrl.o(.bss)
    .bss                                     0x2000289c   Section      144  usbdenum.o(.bss)
    g_pui8DataBufferIn                       0x2000289c   Data          64  usbdenum.o(.bss)
    .bss                                     0x2000292c   Section       48  usbtick.o(.bss)
    .bss                                     0x2000295c   Section      272  usbdma.o(.bss)
    g_psUSBDMAInst                           0x2000295c   Data         272  usbdma.o(.bss)
    STACK                                    0x20002a70   Section     2560  startup_tm4c123.o(STACK)

    Global Symbols

    Symbol Name                              Value     Ov Type        Size  Object(Section)

    BuildAttributes$$THM_ISAv4$E$P$D$K$B$S$7EM$VFPi3$EXTD16$VFPS$VFMA$PE$A:L22UL41UL21$X:L11$S22US41US21$IEEE1$IW$USESV6$~STKCKD$USESV7$~SHL$OTIME$ROPI$EBA8$MICROLIB$REQ8$PRES8$EABIv2 0x00000000   Number         0  anon$$obj.o ABSOLUTE
    __ARM_use_no_argv                        0x00000000   Number         0  main.o ABSOLUTE
    __Vectors                                0x00000000   Data           4  startup_tm4c123.o(RESET)
    __cpp_initialize__aeabi_                  - Undefined Weak Reference
    __cxa_finalize                            - Undefined Weak Reference
    _clock_init                               - Undefined Weak Reference
    _microlib_exit                            - Undefined Weak Reference
    __Vectors_End                            0x0000026c   Data           0  startup_tm4c123.o(RESET)
    __Vectors_Size                           0x0000026c   Number         0  startup_tm4c123.o ABSOLUTE
    __main                                   0x0000026d   Thumb Code     0  entry.o(.ARM.Collect$$$$00000000)
    _main_stk                                0x0000026d   Thumb Code     0  entry2.o(.ARM.Collect$$$$00000001)
    _main_scatterload                        0x00000271   Thumb Code     0  entry5.o(.ARM.Collect$$$$00000004)
    __main_after_scatterload                 0x00000275   Thumb Code     0  entry5.o(.ARM.Collect$$$$00000004)
    _main_clock                              0x00000275   Thumb Code     0  entry7b.o(.ARM.Collect$$$$00000008)
    _main_cpp_init                           0x00000275   Thumb Code     0  entry8b.o(.ARM.Collect$$$$0000000A)
    _main_init                               0x00000275   Thumb Code     0  entry9a.o(.ARM.Collect$$$$0000000B)
    __rt_final_cpp                           0x0000027d   Thumb Code     0  entry10a.o(.ARM.Collect$$$$0000000D)
    __rt_final_exit                          0x0000027d   Thumb Code     0  entry11a.o(.ARM.Collect$$$$0000000F)
    CPUcpsid                                 0x00000281   Thumb Code     8  cpu.o(.emb_text)
    CPUprimask                               0x00000289   Thumb Code     6  cpu.o(.emb_text)
    CPUcpsie                                 0x0000028f   Thumb Code     8  cpu.o(.emb_text)
    CPUwfi                                   0x00000297   Thumb Code     4  cpu.o(.emb_text)
    CPUbasepriSet                            0x0000029b   Thumb Code     6  cpu.o(.emb_text)
    CPUbasepriGet                            0x000002a1   Thumb Code     6  cpu.o(.emb_text)
    Reset_Handler                            0x000002a9   Thumb Code     8  startup_tm4c123.o(.text)
    NMI_Handler                              0x000002b1   Thumb Code     2  startup_tm4c123.o(.text)
    HardFault_Handler                        0x000002b3   Thumb Code     2  startup_tm4c123.o(.text)
    MemManage_Handler                        0x000002b5   Thumb Code     2  startup_tm4c123.o(.text)
    BusFault_Handler                         0x000002b7   Thumb Code     2  startup_tm4c123.o(.text)
    UsageFault_Handler                       0x000002b9   Thumb Code     2  startup_tm4c123.o(.text)
    SVC_Handler                              0x000002bb   Thumb Code     2  startup_tm4c123.o(.text)
    DebugMon_Handler                         0x000002bd   Thumb Code     2  startup_tm4c123.o(.text)
    PendSV_Handler                           0x000002bf   Thumb Code     2  startup_tm4c123.o(.text)
    GPIOA_Handler                            0x000002c3   Thumb Code     2  startup_tm4c123.o(.text)
    GPIOB_Handler                            0x000002c5   Thumb Code     2  startup_tm4c123.o(.text)
    GPIOC_Handler                            0x000002c7   Thumb Code     2  startup_tm4c123.o(.text)
    GPIOD_Handler                            0x000002c9   Thumb Code     2  startup_tm4c123.o(.text)
    GPIOE_Handler                            0x000002cb   Thumb Code     2  startup_tm4c123.o(.text)
    UART0_Handler                            0x000002cd   Thumb Code     2  startup_tm4c123.o(.text)
    UART1_Handler                            0x000002cf   Thumb Code     2  startup_tm4c123.o(.text)
    SSI0_Handler                             0x000002d1   Thumb Code     2  startup_tm4c123.o(.text)
    I2C0_Handler                             0x000002d3   Thumb Code     2  startup_tm4c123.o(.text)
    PMW0_FAULT_Handler                       0x000002d5   Thumb Code     2  startup_tm4c123.o(.text)
    PWM0_0_Handler                           0x000002d7   Thumb Code     2  startup_tm4c123.o(.text)
    PWM0_1_Handler                           0x000002d9   Thumb Code     2  startup_tm4c123.o(.text)
    PWM0_2_Handler                           0x000002db   Thumb Code     2  startup_tm4c123.o(.text)
    QEI0_Handler                             0x000002dd   Thumb Code     2  startup_tm4c123.o(.text)
    ADC0SS0_Handler                          0x000002df   Thumb Code     2  startup_tm4c123.o(.text)
    ADC0SS1_Handler                          0x000002e1   Thumb Code     2  startup_tm4c123.o(.text)
    ADC0SS2_Handler                          0x000002e3   Thumb Code     2  startup_tm4c123.o(.text)
    ADC0SS3_Handler                          0x000002e5   Thumb Code     2  startup_tm4c123.o(.text)
    WDT0_Handler                             0x000002e7   Thumb Code     2  startup_tm4c123.o(.text)
    TIMER0A_Handler                          0x000002e9   Thumb Code     2  startup_tm4c123.o(.text)
    TIMER0B_Handler                          0x000002eb   Thumb Code     2  startup_tm4c123.o(.text)
    TIMER1A_Handler                          0x000002ed   Thumb Code     2  startup_tm4c123.o(.text)
    TIMER1B_Handler                          0x000002ef   Thumb Code     2  startup_tm4c123.o(.text)
    TIMER2A_Handler                          0x000002f1   Thumb Code     2  startup_tm4c123.o(.text)
    TIMER2B_Handler                          0x000002f3   Thumb Code     2  startup_tm4c123.o(.text)
    COMP0_Handler                            0x000002f5   Thumb Code     2  startup_tm4c123.o(.text)
    COMP1_Handler                            0x000002f7   Thumb Code     2  startup_tm4c123.o(.text)
    COMP2_Handler                            0x000002f9   Thumb Code     2  startup_tm4c123.o(.text)
    SYSCTL_Handler                           0x000002fb   Thumb Code     2  startup_tm4c123.o(.text)
    FLASH_Handler                            0x000002fd   Thumb Code     2  startup_tm4c123.o(.text)
    GPIOF_Handler                            0x000002ff   Thumb Code     2  startup_tm4c123.o(.text)
    GPIOG_Handler                            0x00000301   Thumb Code     2  startup_tm4c123.o(.text)
    GPIOH_Handler                            0x00000303   Thumb Code     2  startup_tm4c123.o(.text)
    UART2_Handler                            0x00000305   Thumb Code     2  startup_tm4c123.o(.text)
    SSI1_Handler                             0x00000307   Thumb Code     2  startup_tm4c123.o(.text)
    TIMER3A_Handler                          0x00000309   Thumb Code     2  startup_tm4c123.o(.text)
    TIMER3B_Handler                          0x0000030b   Thumb Code     2  startup_tm4c123.o(.text)
    I2C1_Handler                             0x0000030d   Thumb Code     2  startup_tm4c123.o(.text)
    QEI1_Handler                             0x0000030f   Thumb Code     2  startup_tm4c123.o(.text)
    CAN0_Handler                             0x00000311   Thumb Code     2  startup_tm4c123.o(.text)
    CAN1_Handler                             0x00000313   Thumb Code     2  startup_tm4c123.o(.text)
    CAN2_Handler                             0x00000315   Thumb Code     2  startup_tm4c123.o(.text)
    HIB_Handler                              0x00000317   Thumb Code     2  startup_tm4c123.o(.text)
    USB0_Handler                             0x00000319   Thumb Code     2  startup_tm4c123.o(.text)
    PWM0_3_Handler                           0x0000031b   Thumb Code     2  startup_tm4c123.o(.text)
    UDMA_Handler                             0x0000031d   Thumb Code     2  startup_tm4c123.o(.text)
    UDMAERR_Handler                          0x0000031f   Thumb Code     2  startup_tm4c123.o(.text)
    ADC1SS0_Handler                          0x00000321   Thumb Code     2  startup_tm4c123.o(.text)
    ADC1SS1_Handler                          0x00000323   Thumb Code     2  startup_tm4c123.o(.text)
    ADC1SS2_Handler                          0x00000325   Thumb Code     2  startup_tm4c123.o(.text)
    ADC1SS3_Handler                          0x00000327   Thumb Code     2  startup_tm4c123.o(.text)
    GPIOJ_Handler                            0x00000329   Thumb Code     2  startup_tm4c123.o(.text)
    GPIOK_Handler                            0x0000032b   Thumb Code     2  startup_tm4c123.o(.text)
    GPIOL_Handler                            0x0000032d   Thumb Code     2  startup_tm4c123.o(.text)
    SSI2_Handler                             0x0000032f   Thumb Code     2  startup_tm4c123.o(.text)
    SSI3_Handler                             0x00000331   Thumb Code     2  startup_tm4c123.o(.text)
    UART3_Handler                            0x00000333   Thumb Code     2  startup_tm4c123.o(.text)
    UART4_Handler                            0x00000335   Thumb Code     2  startup_tm4c123.o(.text)
    UART5_Handler                            0x00000337   Thumb Code     2  startup_tm4c123.o(.text)
    UART6_Handler                            0x00000339   Thumb Code     2  startup_tm4c123.o(.text)
    UART7_Handler                            0x0000033b   Thumb Code     2  startup_tm4c123.o(.text)
    I2C2_Handler                             0x0000033d   Thumb Code     2  startup_tm4c123.o(.text)
    I2C3_Handler                             0x0000033f   Thumb Code     2  startup_tm4c123.o(.text)
    TIMER4A_Handler                          0x00000341   Thumb Code     2  startup_tm4c123.o(.text)
    TIMER4B_Handler                          0x00000343   Thumb Code     2  startup_tm4c123.o(.text)
    TIMER5A_Handler                          0x00000345   Thumb Code     2  startup_tm4c123.o(.text)
    TIMER5B_Handler                          0x00000347   Thumb Code     2  startup_tm4c123.o(.text)
    WTIMER0A_Handler                         0x00000349   Thumb Code     2  startup_tm4c123.o(.text)
    WTIMER0B_Handler                         0x0000034b   Thumb Code     2  startup_tm4c123.o(.text)
    WTIMER1A_Handler                         0x0000034d   Thumb Code     2  startup_tm4c123.o(.text)
    WTIMER1B_Handler                         0x0000034f   Thumb Code     2  startup_tm4c123.o(.text)
    WTIMER2A_Handler                         0x00000351   Thumb Code     2  startup_tm4c123.o(.text)
    WTIMER2B_Handler                         0x00000353   Thumb Code     2  startup_tm4c123.o(.text)
    WTIMER3A_Handler                         0x00000355   Thumb Code     2  startup_tm4c123.o(.text)
    WTIMER3B_Handler                         0x00000357   Thumb Code     2  startup_tm4c123.o(.text)
    WTIMER4A_Handler                         0x00000359   Thumb Code     2  startup_tm4c123.o(.text)
    WTIMER4B_Handler                         0x0000035b   Thumb Code     2  startup_tm4c123.o(.text)
    WTIMER5A_Handler                         0x0000035d   Thumb Code     2  startup_tm4c123.o(.text)
    WTIMER5B_Handler                         0x0000035f   Thumb Code     2  startup_tm4c123.o(.text)
    FPU_Handler                              0x00000361   Thumb Code     2  startup_tm4c123.o(.text)
    I2C4_Handler                             0x00000363   Thumb Code     2  startup_tm4c123.o(.text)
    I2C5_Handler                             0x00000365   Thumb Code     2  startup_tm4c123.o(.text)
    GPIOM_Handler                            0x00000367   Thumb Code     2  startup_tm4c123.o(.text)
    GPION_Handler                            0x00000369   Thumb Code     2  startup_tm4c123.o(.text)
    QEI2_Handler                             0x0000036b   Thumb Code     2  startup_tm4c123.o(.text)
    GPIOP0_Handler                           0x0000036d   Thumb Code     2  startup_tm4c123.o(.text)
    GPIOP1_Handler                           0x0000036f   Thumb Code     2  startup_tm4c123.o(.text)
    GPIOP2_Handler                           0x00000371   Thumb Code     2  startup_tm4c123.o(.text)
    GPIOP3_Handler                           0x00000373   Thumb Code     2  startup_tm4c123.o(.text)
    GPIOP4_Handler                           0x00000375   Thumb Code     2  startup_tm4c123.o(.text)
    GPIOP5_Handler                           0x00000377   Thumb Code     2  startup_tm4c123.o(.text)
    GPIOP6_Handler                           0x00000379   Thumb Code     2  startup_tm4c123.o(.text)
    GPIOP7_Handler                           0x0000037b   Thumb Code     2  startup_tm4c123.o(.text)
    GPIOQ0_Handler                           0x0000037d   Thumb Code     2  startup_tm4c123.o(.text)
    GPIOQ1_Handler                           0x0000037f   Thumb Code     2  startup_tm4c123.o(.text)
    GPIOQ2_Handler                           0x00000381   Thumb Code     2  startup_tm4c123.o(.text)
    GPIOQ3_Handler                           0x00000383   Thumb Code     2  startup_tm4c123.o(.text)
    GPIOQ4_Handler                           0x00000385   Thumb Code     2  startup_tm4c123.o(.text)
    GPIOQ5_Handler                           0x00000387   Thumb Code     2  startup_tm4c123.o(.text)
    GPIOQ6_Handler                           0x00000389   Thumb Code     2  startup_tm4c123.o(.text)
    GPIOQ7_Handler                           0x0000038b   Thumb Code     2  startup_tm4c123.o(.text)
    GPIOR_Handler                            0x0000038d   Thumb Code     2  startup_tm4c123.o(.text)
    GPIOS_Handler                            0x0000038f   Thumb Code     2  startup_tm4c123.o(.text)
    PMW1_0_Handler                           0x00000391   Thumb Code     2  startup_tm4c123.o(.text)
    PWM1_1_Handler                           0x00000393   Thumb Code     2  startup_tm4c123.o(.text)
    PWM1_2_Handler                           0x00000395   Thumb Code     2  startup_tm4c123.o(.text)
    PWM1_3_Handler                           0x00000397   Thumb Code     2  startup_tm4c123.o(.text)
    PWM1_FAULT_Handler                       0x00000399   Thumb Code     2  startup_tm4c123.o(.text)
    __aeabi_memcpy                           0x000003a5   Thumb Code    36  memcpya.o(.text)
    __aeabi_memcpy4                          0x000003a5   Thumb Code     0  memcpya.o(.text)
    __aeabi_memcpy8                          0x000003a5   Thumb Code     0  memcpya.o(.text)
    __aeabi_dadd                             0x000003c9   Thumb Code   322  dadd.o(.text)
    __aeabi_dsub                             0x0000050b   Thumb Code     6  dadd.o(.text)
    __aeabi_drsub                            0x00000511   Thumb Code     6  dadd.o(.text)
    __aeabi_dmul                             0x00000517   Thumb Code   228  dmul.o(.text)
    __aeabi_ddiv                             0x000005fb   Thumb Code   222  ddiv.o(.text)
    __aeabi_i2d                              0x000006d9   Thumb Code    34  dflti.o(.text)
    __aeabi_ui2d                             0x000006fb   Thumb Code    26  dfltui.o(.text)
    __aeabi_d2iz                             0x00000715   Thumb Code    62  dfixi.o(.text)
    __aeabi_f2d                              0x00000753   Thumb Code    38  f2d.o(.text)
    __aeabi_d2f                              0x00000779   Thumb Code    56  d2f.o(.text)
    __aeabi_llsl                             0x000007b1   Thumb Code    30  llshl.o(.text)
    _ll_shift_l                              0x000007b1   Thumb Code     0  llshl.o(.text)
    __aeabi_llsr                             0x000007cf   Thumb Code    32  llushr.o(.text)
    _ll_ushift_r                             0x000007cf   Thumb Code     0  llushr.o(.text)
    __aeabi_lasr                             0x000007ef   Thumb Code    36  llsshr.o(.text)
    _ll_sshift_r                             0x000007ef   Thumb Code     0  llsshr.o(.text)
    __I$use$fp                               0x00000813   Thumb Code     0  iusefp.o(.text)
    _float_round                             0x00000813   Thumb Code    18  fepilogue.o(.text)
    _float_epilogue                          0x00000825   Thumb Code    92  fepilogue.o(.text)
    _double_round                            0x00000881   Thumb Code    30  depilogue.o(.text)
    _double_epilogue                         0x0000089f   Thumb Code   156  depilogue.o(.text)
    __scatterload                            0x0000093d   Thumb Code    28  init.o(.text)
    __scatterload_rt2                        0x0000093d   Thumb Code     0  init.o(.text)
    __decompress                             0x00000961   Thumb Code     0  __dczerorl2.o(.text)
    __decompress1                            0x00000961   Thumb Code    86  __dczerorl2.o(.text)
    ADC0Handler                              0x000009b9   Thumb Code   116  drv_adc.o(i.ADC0Handler)
    ADCIntRegister                           0x00000a4d   Thumb Code    92  adc.o(i.ADCIntRegister)
    ANO_CBTracking_Ctrl                      0x00000bc1   Thumb Code   102  ano_opmv_cbtracking_ctrl.o(i.ANO_CBTracking_Ctrl)
    ANO_CBTracking_Task                      0x00000eed   Thumb Code    60  ano_opmv_cbtracking_ctrl.o(i.ANO_CBTracking_Task)
    ANO_DT_Data_Exchange                     0x00000f3d   Thumb Code  1192  ano_dt.o(i.ANO_DT_Data_Exchange)
    ANO_DT_Data_Receive_Anl                  0x000013f9   Thumb Code   366  ano_dt.o(i.ANO_DT_Data_Receive_Anl)
    ANO_DT_Data_Receive_Anl_Task             0x00001575   Thumb Code    88  ano_dt.o(i.ANO_DT_Data_Receive_Anl_Task)
    ANO_DT_Data_Receive_Prepare              0x000015e9   Thumb Code   216  ano_dt.o(i.ANO_DT_Data_Receive_Prepare)
    ANO_DT_Data_Receive_Prepare_USB          0x000016d5   Thumb Code   216  ano_dt.o(i.ANO_DT_Data_Receive_Prepare_USB)
    ANO_DT_GetParame                         0x000017c1   Thumb Code    34  ano_dt.o(i.ANO_DT_GetParame)
    ANO_DT_ParListToParUsed                  0x000017ed   Thumb Code  1160  ano_dt.o(i.ANO_DT_ParListToParUsed)
    ANO_DT_ParUsedToParList                  0x00001c7d   Thumb Code  1226  ano_dt.o(i.ANO_DT_ParUsedToParList)
    ANO_DT_SendCmd                           0x00002151   Thumb Code   240  ano_dt.o(i.ANO_DT_SendCmd)
    ANO_DT_SendParame                        0x00002245   Thumb Code   226  ano_dt.o(i.ANO_DT_SendParame)
    ANO_DT_SendSensorSta                     0x00002331   Thumb Code   158  ano_dt.o(i.ANO_DT_SendSensorSta)
    ANO_DT_SendString                        0x000023d5   Thumb Code   136  ano_dt.o(i.ANO_DT_SendString)
    ANO_DT_Send_Data                         0x00002461   Thumb Code    24  ano_dt.o(i.ANO_DT_Send_Data)
    ANO_DT_Send_Location                     0x0000247d   Thumb Code   348  ano_dt.o(i.ANO_DT_Send_Location)
    ANO_DT_Send_MotoPWM                      0x000025dd   Thumb Code   308  ano_dt.o(i.ANO_DT_Send_MotoPWM)
    ANO_DT_Send_Power                        0x00002715   Thumb Code   148  ano_dt.o(i.ANO_DT_Send_Power)
    ANO_DT_Send_RCData                       0x000027ad   Thumb Code   364  ano_dt.o(i.ANO_DT_Send_RCData)
    ANO_DT_Send_Senser                       0x0000291d   Thumb Code   388  ano_dt.o(i.ANO_DT_Send_Senser)
    ANO_DT_Send_Senser2                      0x00002aa5   Thumb Code   224  ano_dt.o(i.ANO_DT_Send_Senser2)
    ANO_DT_Send_Speed                        0x00002b89   Thumb Code   254  ano_dt.o(i.ANO_DT_Send_Speed)
    ANO_DT_Send_Status                       0x00002c91   Thumb Code   348  ano_dt.o(i.ANO_DT_Send_Status)
    ANO_DT_Send_User                         0x00002df5   Thumb Code   412  ano_dt.o(i.ANO_DT_Send_User)
    ANO_DT_Send_VER                          0x00002fb5   Thumb Code   112  ano_dt.o(i.ANO_DT_Send_VER)
    ANO_DT_Send_Version                      0x00003025   Thumb Code   206  ano_dt.o(i.ANO_DT_Send_Version)
    ANO_LT_StepProcedure                     0x000030f9   Thumb Code   596  ano_opmv_linetracking_ctrl.o(i.ANO_LT_StepProcedure)
    ANO_LTracking_Ctrl                       0x00003371   Thumb Code   192  ano_opmv_linetracking_ctrl.o(i.ANO_LTracking_Ctrl)
    ANO_OFDF_Task                            0x0000344d   Thumb Code    24  ano_of_decofusion.o(i.ANO_OFDF_Task)
    ANO_OF_Data_Prepare_Task                 0x0000353d   Thumb Code    58  ano_of_decofusion.o(i.ANO_OF_Data_Prepare_Task)
    ANO_OPMV_Ctrl_Task                       0x00003821   Thumb Code   210  ano_opmv_ctrl.o(i.ANO_OPMV_Ctrl_Task)
    All_PID_Init                             0x00003915   Thumb Code    24  ano_flightctrl.o(i.All_PID_Init)
    Alt_1level_Ctrl                          0x0000392d   Thumb Code   388  ano_altctrl.o(i.Alt_1level_Ctrl)
    Alt_1level_PID_Init                      0x00003b01   Thumb Code    46  ano_altctrl.o(i.Alt_1level_PID_Init)
    Alt_2level_Ctrl                          0x00003b3d   Thumb Code   466  ano_altctrl.o(i.Alt_2level_Ctrl)
    Alt_2level_PID_Init                      0x00003d45   Thumb Code    48  ano_altctrl.o(i.Alt_2level_PID_Init)
    AnoOF_Check                              0x00003d81   Thumb Code   100  ano_of.o(i.AnoOF_Check)
    AnoOF_DataAnl                            0x00003df1   Thumb Code   398  ano_of.o(i.AnoOF_DataAnl)
    AnoOF_DataAnl_Task                       0x00003fe1   Thumb Code    12  ano_of.o(i.AnoOF_DataAnl_Task)
    AnoOF_GetOneByte                         0x00003fed   Thumb Code   228  ano_of.o(i.AnoOF_GetOneByte)
    AnoUsbCdcInit                            0x000040e1   Thumb Code    98  ano_usb.o(i.AnoUsbCdcInit)
    AnoUsbCdcRead                            0x0000415d   Thumb Code    30  ano_usb.o(i.AnoUsbCdcRead)
    AnoUsbCdcSend                            0x00004185   Thumb Code    24  ano_usb.o(i.AnoUsbCdcSend)
    Ano_Parame_Read                          0x000041a5   Thumb Code    32  ano_parameter.o(i.Ano_Parame_Read)
    Ano_Parame_Write_task                    0x000041e5   Thumb Code   106  ano_parameter.o(i.Ano_Parame_Write_task)
    Ano_UWB_Data_Calcu_Task                  0x00004269   Thumb Code    82  ano_uwb.o(i.Ano_UWB_Data_Calcu_Task)
    Att_1level_Ctrl                          0x000042c9   Thumb Code   554  ano_attctrl.o(i.Att_1level_Ctrl)
    Att_1level_PID_Init                      0x00004531   Thumb Code   150  ano_attctrl.o(i.Att_1level_PID_Init)
    Att_2level_Ctrl                          0x000045d5   Thumb Code  1474  ano_attctrl.o(i.Att_2level_Ctrl)
    Att_2level_PID_Init                      0x00004bb5   Thumb Code   120  ano_attctrl.o(i.Att_2level_PID_Init)
    Auto_Take_Off_Land_Task                  0x00004c39   Thumb Code   458  ano_altctrl.o(i.Auto_Take_Off_Land_Task)
    Center_Pos_Set                           0x00004f19   Thumb Code    28  ano_sensor_basic.o(i.Center_Pos_Set)
    ControlHandler                           0x00004f3d   Thumb Code   138  ano_usb.o(i.ControlHandler)
    Drv_AK8975CSPinInit                      0x0000502d   Thumb Code    46  drv_ak8975.o(i.Drv_AK8975CSPinInit)
    Drv_AK8975_Read                          0x00005065   Thumb Code    48  drv_ak8975.o(i.Drv_AK8975_Read)
    Drv_Adc0Trigger                          0x00005099   Thumb Code    18  drv_adc.o(i.Drv_Adc0Trigger)
    Drv_AdcInit                              0x000050b1   Thumb Code   164  drv_adc.o(i.Drv_AdcInit)
    Drv_BspInit                              0x00005169   Thumb Code   208  drv_bsp.o(i.Drv_BspInit)
    Drv_GpsGetOneByte                        0x00005251   Thumb Code   110  drv_gps.o(i.Drv_GpsGetOneByte)
    Drv_GpsPin_Init                          0x000052c9   Thumb Code    46  drv_gps.o(i.Drv_GpsPin_Init)
    Drv_HeatSet                              0x000052f9   Thumb Code    48  drv_pwmout.o(i.Drv_HeatSet)
    Drv_HeatingSet                           0x0000532d   Thumb Code    16  drv_heating.o(i.Drv_HeatingSet)
    Drv_Icm20602CSPinInit                    0x0000533d   Thumb Code    50  drv_icm20602.o(i.Drv_Icm20602CSPinInit)
    Drv_Icm20602Init                         0x00005375   Thumb Code   236  drv_icm20602.o(i.Drv_Icm20602Init)
    Drv_Icm20602IrqHandler                   0x00005465   Thumb Code    16  drv_icm20602.o(i.Drv_Icm20602IrqHandler)
    Drv_Icm20602ReadyPinInit                 0x00005479   Thumb Code   110  drv_icm20602.o(i.Drv_Icm20602ReadyPinInit)
    Drv_Icm20602_Read                        0x000054f5   Thumb Code    18  drv_icm20602.o(i.Drv_Icm20602_Read)
    Drv_Laser_GetOneByte                     0x0000550d   Thumb Code   168  drv_laser.o(i.Drv_Laser_GetOneByte)
    Drv_Laser_Init                           0x000055c9   Thumb Code    68  drv_laser.o(i.Drv_Laser_Init)
    Drv_LedOnOff                             0x00005615   Thumb Code   180  drv_led.o(i.Drv_LedOnOff)
    Drv_MotorPWMSet                          0x000056d1   Thumb Code   204  drv_pwmout.o(i.Drv_MotorPWMSet)
    Drv_OFInit                               0x000057a9   Thumb Code   288  drv_up_flow.o(i.Drv_OFInit)
    Drv_PpmInit                              0x000058d5   Thumb Code   192  drv_rcin.o(i.Drv_PpmInit)
    Drv_PwmOutInit                           0x000059b1   Thumb Code   676  drv_pwmout.o(i.Drv_PwmOutInit)
    Drv_SPL06CSPinInit                       0x00005c91   Thumb Code    46  drv_spl06.o(i.Drv_SPL06CSPinInit)
    Drv_SbusInit                             0x00005cc9   Thumb Code   156  drv_rcin.o(i.Drv_SbusInit)
    Drv_SenserCsPinInit                      0x00005d81   Thumb Code    58  drv_bsp.o(i.Drv_SenserCsPinInit)
    Drv_Spi0Init                             0x00005dc5   Thumb Code   134  drv_spi.o(i.Drv_Spi0Init)
    Drv_Spi0Receive                          0x00005e5d   Thumb Code    30  drv_spi.o(i.Drv_Spi0Receive)
    Drv_Spi0SingleWirteAndRead               0x00005e7d   Thumb Code    58  drv_spi.o(i.Drv_Spi0SingleWirteAndRead)
    Drv_Spl0601Init                          0x00005ebd   Thumb Code    80  drv_spl06.o(i.Drv_Spl0601Init)
    Drv_Spl0601_Read                         0x00005f15   Thumb Code   146  drv_spl06.o(i.Drv_Spl0601_Read)
    Drv_Uart1Init                            0x00005fd5   Thumb Code   192  drv_uart.o(i.Drv_Uart1Init)
    Drv_Uart1SendBuf                         0x000060a5   Thumb Code    42  drv_uart.o(i.Drv_Uart1SendBuf)
    Drv_Uart1TxCheck                         0x000060d9   Thumb Code    52  drv_uart.o(i.Drv_Uart1TxCheck)
    Drv_Uart2Init                            0x0000611d   Thumb Code   188  drv_uart.o(i.Drv_Uart2Init)
    Drv_Uart2SendBuf                         0x000061f5   Thumb Code    42  drv_uart.o(i.Drv_Uart2SendBuf)
    Drv_Uart2TxCheck                         0x00006229   Thumb Code    52  drv_uart.o(i.Drv_Uart2TxCheck)
    Drv_Uart3Init                            0x0000626d   Thumb Code   188  drv_uart.o(i.Drv_Uart3Init)
    Drv_Uart3TxCheck                         0x00006345   Thumb Code    52  drv_uart.o(i.Drv_Uart3TxCheck)
    Drv_Uart4Init                            0x00006389   Thumb Code   188  drv_uart.o(i.Drv_Uart4Init)
    Drv_Uart4SendBuf                         0x00006461   Thumb Code    42  drv_uart.o(i.Drv_Uart4SendBuf)
    Drv_Uart4TxCheck                         0x00006495   Thumb Code    52  drv_uart.o(i.Drv_Uart4TxCheck)
    Drv_Uart5Init                            0x000064d9   Thumb Code   206  drv_uart.o(i.Drv_Uart5Init)
    Drv_Uart5TxCheck                         0x000065cd   Thumb Code    52  drv_uart.o(i.Drv_Uart5TxCheck)
    Dvr_LedInit                              0x00006611   Thumb Code   122  drv_led.o(i.Dvr_LedInit)
    Dvr_ParamterInit                         0x00006699   Thumb Code    26  drv_paramter.o(i.Dvr_ParamterInit)
    Dvr_ParamterRead                         0x000066b9   Thumb Code    22  drv_paramter.o(i.Dvr_ParamterRead)
    Dvr_ParamterSave                         0x000066d5   Thumb Code    22  drv_paramter.o(i.Dvr_ParamterSave)
    Fc_Sensor_Get                            0x000066f1   Thumb Code    76  ano_flightdatacal.o(i.Fc_Sensor_Get)
    Flight_Mode_Set                          0x0000674d   Thumb Code   194  ano_flightctrl.o(i.Flight_Mode_Set)
    Flight_State_Task                        0x00006821   Thumb Code  1196  ano_flightctrl.o(i.Flight_State_Task)
    FlyCtrlDataAnl                           0x00006ce9   Thumb Code    32  ano_flyctrl.o(i.FlyCtrlDataAnl)
    FlyCtrlReset                             0x00006d15   Thumb Code    98  ano_flyctrl.o(i.FlyCtrlReset)
    FlyCtrl_Task                             0x00006d85   Thumb Code  2022  ano_flyctrl.o(i.FlyCtrl_Task)
    GPIOIntClear                             0x000075f1   Thumb Code     6  gpio.o(i.GPIOIntClear)
    GPIOIntEnable                            0x000075f7   Thumb Code    12  gpio.o(i.GPIOIntEnable)
    GPIOIntRegister                          0x00007603   Thumb Code    26  gpio.o(i.GPIOIntRegister)
    GPS_Data_Processing_Task                 0x0000761d   Thumb Code   402  drv_gps.o(i.GPS_Data_Processing_Task)
    GPS_data_analysis                        0x000077d5   Thumb Code   394  drv_gps.o(i.GPS_data_analysis)
    GPS_ubx_check_sum                        0x0000796d   Thumb Code    92  drv_gps.o(i.GPS_ubx_check_sum)
    GetSysRunTimeUs                          0x000079cd   Thumb Code    46  drv_bsp.o(i.GetSysRunTimeUs)
    ICM_Get_Data                             0x00007dbd   Thumb Code   210  drv_icm20602.o(i.ICM_Get_Data)
    IMU_Update_Task                          0x00007e9d   Thumb Code   124  ano_flightdatacal.o(i.IMU_Update_Task)
    IMU_update                               0x00007f45   Thumb Code  2438  ano_imu.o(i.IMU_update)
    INT_1ms_Task                             0x000088e5   Thumb Code    46  ano_scheduler.o(i.INT_1ms_Task)
    IntDisable                               0x0000891d   Thumb Code    92  interrupt.o(i.IntDisable)
    IntEnable                                0x00008981   Thumb Code    92  interrupt.o(i.IntEnable)
    IntIsEnabled                             0x000089e5   Thumb Code    88  interrupt.o(i.IntIsEnabled)
    IntMasterDisable                         0x00008a45   Thumb Code    14  interrupt.o(i.IntMasterDisable)
    IntMasterEnable                          0x00008a53   Thumb Code    14  interrupt.o(i.IntMasterEnable)
    IntRegister                              0x00008a61   Thumb Code    44  interrupt.o(i.IntRegister)
    InternalUSBRegisterTickHandler           0x00008a95   Thumb Code    44  usbtick.o(i.InternalUSBRegisterTickHandler)
    InternalUSBStartOfFrameTick              0x00008ac9   Thumb Code    46  usbtick.o(i.InternalUSBStartOfFrameTick)
    InternalUSBTickInit                      0x00008b01   Thumb Code    46  usbtick.o(i.InternalUSBTickInit)
    LED_1ms_DRV                              0x00008b39   Thumb Code   198  ano_led.o(i.LED_1ms_DRV)
    LED_Task2                                0x00008c0d   Thumb Code   804  ano_led.o(i.LED_Task2)
    Loc_1level_Ctrl                          0x00008f59   Thumb Code  3062  ano_locctrl.o(i.Loc_1level_Ctrl)
    Loc_1level_PID_Init                      0x00009ba9   Thumb Code   364  ano_locctrl.o(i.Loc_1level_PID_Init)
    MPU6050_Data_Offset                      0x0000a011   Thumb Code   452  ano_sensor_basic.o(i.MPU6050_Data_Offset)
    Mag_Data_Deal_Task                       0x0000a311   Thumb Code   920  ano_magprocess.o(i.Mag_Data_Deal_Task)
    Mag_Get                                  0x0000a6f1   Thumb Code    84  drv_ak8975.o(i.Mag_Get)
    Mag_Update_Task                          0x0000a749   Thumb Code    48  ano_flightdatacal.o(i.Mag_Update_Task)
    Main_Task                                0x0000a785   Thumb Code   112  ano_scheduler.o(i.Main_Task)
    Motor_Ctrl_Task                          0x0000a7fd   Thumb Code   528  ano_motorctrl.o(i.Motor_Ctrl_Task)
    MyDelayMs                                0x0000aa2d   Thumb Code    30  drv_bsp.o(i.MyDelayMs)
    OFGetByte                                0x0000aa51   Thumb Code   232  drv_up_flow.o(i.OFGetByte)
    OpenMV_Byte_Get                          0x0000ad45   Thumb Code   272  drv_openmv.o(i.OpenMV_Byte_Get)
    OpenMV_Offline_Check                     0x0000af19   Thumb Code    34  drv_openmv.o(i.OpenMV_Offline_Check)
    PID_Rest                                 0x0000af45   Thumb Code   434  ano_parameter.o(i.PID_Rest)
    PID_calculate                            0x0000b11d   Thumb Code   284  ano_pid.o(i.PID_calculate)
    Para_Data_Init                           0x0000b311   Thumb Code     8  ano_fcdata.o(i.Para_Data_Init)
    Parame_Reset                             0x0000b3d5   Thumb Code   210  ano_parameter.o(i.Parame_Reset)
    Power_UpdateTask                         0x0000b4d5   Thumb Code   416  ano_power.o(i.Power_UpdateTask)
    ProcessDataFromHost                      0x0000b6b1   Thumb Code   134  usbdcdc.o(i.ProcessDataFromHost)
    ProcessDataToHost                        0x0000b739   Thumb Code    94  usbdcdc.o(i.ProcessDataToHost)
    Program_Ctrl_User_Set_HXYcmps            0x0000b79d   Thumb Code    42  ano_programctrl_user.o(i.Program_Ctrl_User_Set_HXYcmps)
    Program_Ctrl_User_Set_YAWdps             0x0000b7d1   Thumb Code    70  ano_programctrl_user.o(i.Program_Ctrl_User_Set_YAWdps)
    RC_duty_task                             0x0000b825   Thumb Code   282  ano_rc.o(i.RC_duty_task)
    Remote_Control_Init                      0x0000b961   Thumb Code    30  ano_rc.o(i.Remote_Control_Init)
    RxHandler                                0x0000b989   Thumb Code    38  ano_usb.o(i.RxHandler)
    Sensor_Basic_Init                        0x0000bd81   Thumb Code    18  ano_sensor_basic.o(i.Sensor_Basic_Init)
    Sensor_Data_Prepare                      0x0000bd99   Thumb Code   924  ano_sensor_basic.o(i.Sensor_Data_Prepare)
    Set_Att_1level_Ki                        0x0000c169   Thumb Code    54  ano_attctrl.o(i.Set_Att_1level_Ki)
    Set_Att_2level_Ki                        0x0000c1ad   Thumb Code    36  ano_attctrl.o(i.Set_Att_2level_Ki)
    Swtich_State_Task                        0x0000c1e1   Thumb Code   346  ano_flightctrl.o(i.Swtich_State_Task)
    SysCtlClockGet                           0x0000c379   Thumb Code   304  sysctl.o(i.SysCtlClockGet)
    SysCtlPeripheralEnable                   0x0000c4cd   Thumb Code    36  sysctl.o(i.SysCtlPeripheralEnable)
    SysCtlPeripheralReset                    0x0000c4f5   Thumb Code    56  sysctl.o(i.SysCtlPeripheralReset)
    SysCtlUSBPLLEnable                       0x0000c531   Thumb Code    12  sysctl.o(i.SysCtlUSBPLLEnable)
    SysTick_Handler                          0x0000c541   Thumb Code    20  drv_bsp.o(i.SysTick_Handler)
    SysTick_Init                             0x0000c559   Thumb Code    54  drv_bsp.o(i.SysTick_Init)
    SystemInit                               0x0000c591   Thumb Code   112  system_tm4c123.o(i.SystemInit)
    Thermostatic_Ctrl_Task                   0x0000c629   Thumb Code   554  drv_heating.o(i.Thermostatic_Ctrl_Task)
    TimerIntRegister                         0x0000c8f9   Thumb Code    88  timer.o(i.TimerIntRegister)
    TxHandler                                0x0000c961   Thumb Code    18  ano_usb.o(i.TxHandler)
    UART1_IRQHandler                         0x0000c975   Thumb Code    82  drv_uart.o(i.UART1_IRQHandler)
    UART2_IRQHandler                         0x0000c9cd   Thumb Code    82  drv_uart.o(i.UART2_IRQHandler)
    UART3_IRQHandler                         0x0000ca25   Thumb Code    82  drv_uart.o(i.UART3_IRQHandler)
    UART4_IRQHandler                         0x0000ca7d   Thumb Code   104  drv_uart.o(i.UART4_IRQHandler)
    UART5_IRQHandler                         0x0000caed   Thumb Code    82  drv_uart.o(i.UART5_IRQHandler)
    UARTIntRegister                          0x0000cb45   Thumb Code    70  uart.o(i.UARTIntRegister)
    ULPIConfigSet                            0x0000cbad   Thumb Code    90  usbulpi.o(i.ULPIConfigSet)
    USB0DeviceIntHandler                     0x0000cc09   Thumb Code    20  usbdhandler.o(i.USB0DeviceIntHandler)
    USBBufferEventCallback                   0x0000cc21   Thumb Code   340  usbbuffer.o(i.USBBufferEventCallback)
    USBBufferFlush                           0x0000cd75   Thumb Code     6  usbbuffer.o(i.USBBufferFlush)
    USBBufferInit                            0x0000cd7b   Thumb Code    24  usbbuffer.o(i.USBBufferInit)
    USBBufferRead                            0x0000cd93   Thumb Code    40  usbbuffer.o(i.USBBufferRead)
    USBBufferWrite                           0x0000cdbb   Thumb Code    52  usbbuffer.o(i.USBBufferWrite)
    USBClockEnable                           0x0000cdef   Thumb Code    10  usb.o(i.USBClockEnable)
    USBControllerVersion                     0x0000cdf9   Thumb Code    10  usb.o(i.USBControllerVersion)
    USBDCDCCompositeInit                     0x0000ce05   Thumb Code   184  usbdcdc.o(i.USBDCDCCompositeInit)
    USBDCDCInit                              0x0000cee1   Thumb Code    66  usbdcdc.o(i.USBDCDCInit)
    USBDCDCPacketRead                        0x0000cf2d   Thumb Code   164  usbdcdc.o(i.USBDCDCPacketRead)
    USBDCDCPacketWrite                       0x0000cfd1   Thumb Code    84  usbdcdc.o(i.USBDCDCPacketWrite)
    USBDCDCRxPacketAvailable                 0x0000d029   Thumb Code    56  usbdcdc.o(i.USBDCDCRxPacketAvailable)
    USBDCDCTxPacketAvailable                 0x0000d061   Thumb Code    16  usbdcdc.o(i.USBDCDCTxPacketAvailable)
    USBDCDConfigDescGet                      0x0000d075   Thumb Code    86  usbdcdesc.o(i.USBDCDConfigDescGet)
    USBDCDConfigDescGetNum                   0x0000d0cb   Thumb Code    54  usbdcdesc.o(i.USBDCDConfigDescGetNum)
    USBDCDConfigDescGetSize                  0x0000d101   Thumb Code    34  usbdcdesc.o(i.USBDCDConfigDescGetSize)
    USBDCDConfigGetInterface                 0x0000d123   Thumb Code   188  usbdcdesc.o(i.USBDCDConfigGetInterface)
    USBDCDConfigGetInterfaceEndpoint         0x0000d1df   Thumb Code    94  usbdcdesc.o(i.USBDCDConfigGetInterfaceEndpoint)
    USBDCDDeviceInfoInit                     0x0000d23d   Thumb Code    54  usbdenum.o(i.USBDCDDeviceInfoInit)
    USBDCDFeatureGet                         0x0000d281   Thumb Code    18  usbdenum.o(i.USBDCDFeatureGet)
    USBDCDInit                               0x0000d299   Thumb Code   392  usbdenum.o(i.USBDCDInit)
    USBDCDRequestDataEP0                     0x0000d441   Thumb Code    14  usbdenum.o(i.USBDCDRequestDataEP0)
    USBDCDSendDataEP0                        0x0000d455   Thumb Code    14  usbdenum.o(i.USBDCDSendDataEP0)
    USBDCDStallEP0                           0x0000d469   Thumb Code    20  usbdenum.o(i.USBDCDStallEP0)
    USBDMAChannelAddressSet                  0x0000d995   Thumb Code    10  usb.o(i.USBDMAChannelAddressSet)
    USBDMAChannelConfigSet                   0x0000d99f   Thumb Code    22  usb.o(i.USBDMAChannelConfigSet)
    USBDMAChannelCountSet                    0x0000d9b5   Thumb Code    10  usb.o(i.USBDMAChannelCountSet)
    USBDMAChannelDisable                     0x0000d9bf   Thumb Code    18  usb.o(i.USBDMAChannelDisable)
    USBDMAChannelEnable                      0x0000d9d1   Thumb Code    18  usb.o(i.USBDMAChannelEnable)
    USBDMAChannelIntDisable                  0x0000d9e3   Thumb Code    18  usb.o(i.USBDMAChannelIntDisable)
    USBDMAChannelIntEnable                   0x0000d9f5   Thumb Code    18  usb.o(i.USBDMAChannelIntEnable)
    USBDMAChannelIntStatus                   0x0000da07   Thumb Code     6  usb.o(i.USBDMAChannelIntStatus)
    USBDMAChannelStatus                      0x0000da0d   Thumb Code    14  usb.o(i.USBDMAChannelStatus)
    USBDescGet                               0x0000dcf1   Thumb Code    54  usbdesc.o(i.USBDescGet)
    USBDescGetNum                            0x0000dd27   Thumb Code    46  usbdesc.o(i.USBDescGetNum)
    USBDevAddrSet                            0x0000dd55   Thumb Code     4  usb.o(i.USBDevAddrSet)
    USBDevConnect                            0x0000dd59   Thumb Code    10  usb.o(i.USBDevConnect)
    USBDevDisconnect                         0x0000dd63   Thumb Code    10  usb.o(i.USBDevDisconnect)
    USBDevEndpointConfigSet                  0x0000dd6d   Thumb Code   136  usb.o(i.USBDevEndpointConfigSet)
    USBDevEndpointDataAck                    0x0000ddf5   Thumb Code    36  usb.o(i.USBDevEndpointDataAck)
    USBDevEndpointStall                      0x0000de19   Thumb Code    52  usb.o(i.USBDevEndpointStall)
    USBDevEndpointStallClear                 0x0000de4d   Thumb Code    74  usb.o(i.USBDevEndpointStallClear)
    USBDevEndpointStatusClear                0x0000de97   Thumb Code    94  usb.o(i.USBDevEndpointStatusClear)
    USBDevLPMConfig                          0x0000def5   Thumb Code     6  usb.o(i.USBDevLPMConfig)
    USBDevLPMDisable                         0x0000defb   Thumb Code    14  usb.o(i.USBDevLPMDisable)
    USBDevLPMEnable                          0x0000df09   Thumb Code    14  usb.o(i.USBDevLPMEnable)
    USBDevMode                               0x0000df17   Thumb Code     8  usb.o(i.USBDevMode)
    USBDeviceConfig                          0x0000df21   Thumb Code   410  usbdconfig.o(i.USBDeviceConfig)
    USBDeviceConfigAlternate                 0x0000e0c1   Thumb Code   194  usbdconfig.o(i.USBDeviceConfigAlternate)
    USBDeviceEnumHandler                     0x0000e189   Thumb Code   224  usbdenum.o(i.USBDeviceEnumHandler)
    USBDeviceIntHandlerInternal              0x0000e275   Thumb Code   388  usbdenum.o(i.USBDeviceIntHandlerInternal)
    USBDeviceResumeTickHandler               0x0000e40d   Thumb Code    76  usbdenum.o(i.USBDeviceResumeTickHandler)
    USBEndpointDMAChannel                    0x0000e465   Thumb Code    26  usb.o(i.USBEndpointDMAChannel)
    USBEndpointDMAConfigSet                  0x0000e47f   Thumb Code    86  usb.o(i.USBEndpointDMAConfigSet)
    USBEndpointDMADisable                    0x0000e4d5   Thumb Code    36  usb.o(i.USBEndpointDMADisable)
    USBEndpointDMAEnable                     0x0000e4f9   Thumb Code    36  usb.o(i.USBEndpointDMAEnable)
    USBEndpointDataAvail                     0x0000e51d   Thumb Code    30  usb.o(i.USBEndpointDataAvail)
    USBEndpointDataGet                       0x0000e53b   Thumb Code    84  usb.o(i.USBEndpointDataGet)
    USBEndpointDataPut                       0x0000e58f   Thumb Code    58  usb.o(i.USBEndpointDataPut)
    USBEndpointDataSend                      0x0000e5c9   Thumb Code    48  usb.o(i.USBEndpointDataSend)
    USBEndpointPacketCountSet                0x0000e5f9   Thumb Code    12  usb.o(i.USBEndpointPacketCountSet)
    USBEndpointStatus                        0x0000e605   Thumb Code    16  usb.o(i.USBEndpointStatus)
    USBFIFOAddrGet                           0x0000e615   Thumb Code     8  usb.o(i.USBFIFOAddrGet)
    USBFIFOConfigSet                         0x0000e61d   Thumb Code    64  usb.o(i.USBFIFOConfigSet)
    USBHostResume                            0x0000e65d   Thumb Code    18  usb.o(i.USBHostResume)
    USBIntEnableControl                      0x0000e671   Thumb Code    38  usb.o(i.USBIntEnableControl)
    USBIntEnableEndpoint                     0x0000e69d   Thumb Code    22  usb.o(i.USBIntEnableEndpoint)
    USBIntRegister                           0x0000e6b5   Thumb Code    58  usb.o(i.USBIntRegister)
    USBIntStatusControl                      0x0000e6f9   Thumb Code    56  usb.o(i.USBIntStatusControl)
    USBIntStatusEndpoint                     0x0000e735   Thumb Code    10  usb.o(i.USBIntStatusEndpoint)
    USBLPMIntEnable                          0x0000e73f   Thumb Code    12  usb.o(i.USBLPMIntEnable)
    USBLPMIntStatus                          0x0000e74b   Thumb Code     6  usb.o(i.USBLPMIntStatus)
    USBLibDMAInit                            0x0000e751   Thumb Code   232  usbdma.o(i.USBLibDMAInit)
    USBOTGMode                               0x0000e8ad   Thumb Code     8  usb.o(i.USBOTGMode)
    USBRingBufAdvanceRead                    0x0000e8b5   Thumb Code    70  usbringbuf.o(i.USBRingBufAdvanceRead)
    USBRingBufAdvanceWrite                   0x0000e8fb   Thumb Code    84  usbringbuf.o(i.USBRingBufAdvanceWrite)
    USBRingBufContigFree                     0x0000e94f   Thumb Code    30  usbringbuf.o(i.USBRingBufContigFree)
    USBRingBufContigUsed                     0x0000e96d   Thumb Code    16  usbringbuf.o(i.USBRingBufContigUsed)
    USBRingBufFlush                          0x0000e97d   Thumb Code    26  usbringbuf.o(i.USBRingBufFlush)
    USBRingBufFree                           0x0000e997   Thumb Code    22  usbringbuf.o(i.USBRingBufFree)
    USBRingBufInit                           0x0000e9ad   Thumb Code    12  usbringbuf.o(i.USBRingBufInit)
    USBRingBufRead                           0x0000e9b9   Thumb Code    82  usbringbuf.o(i.USBRingBufRead)
    USBRingBufUsed                           0x0000ea0b   Thumb Code    20  usbringbuf.o(i.USBRingBufUsed)
    USBRingBufWrite                          0x0000ea1f   Thumb Code    80  usbringbuf.o(i.USBRingBufWrite)
    USBStackModeSet                          0x0000ea71   Thumb Code    24  usbmode.o(i.USBStackModeSet)
    USBULPIDisable                           0x0000ea8d   Thumb Code    14  usb.o(i.USBULPIDisable)
    USBULPIEnable                            0x0000ea9b   Thumb Code    14  usb.o(i.USBULPIEnable)
    USBULPIRegRead                           0x0000eaa9   Thumb Code    32  usb.o(i.USBULPIRegRead)
    USBULPIRegWrite                          0x0000eac9   Thumb Code    32  usb.o(i.USBULPIRegWrite)
    WCXY_Acc_Get_Task                        0x0000eae9   Thumb Code    66  drv_gps.o(i.WCXY_Acc_Get_Task)
    WCZ_Acc_Get_Task                         0x0000eb3d   Thumb Code    34  ano_flightdatacal.o(i.WCZ_Acc_Get_Task)
    WCZ_Data_Calc                            0x0000eb6d   Thumb Code   522  ano_motioncal.o(i.WCZ_Data_Calc)
    WCZ_Data_Reset                           0x0000edc5   Thumb Code    68  ano_motioncal.o(i.WCZ_Data_Reset)
    WCZ_Fus_Task                             0x0000ee1d   Thumb Code   432  ano_flightdatacal.o(i.WCZ_Fus_Task)
    __scatterload_copy                       0x0000f06d   Thumb Code    14  handlers.o(i.__scatterload_copy)
    __scatterload_null                       0x0000f07b   Thumb Code     2  handlers.o(i.__scatterload_null)
    __scatterload_zeroinit                   0x0000f07d   Thumb Code    14  handlers.o(i.__scatterload_zeroinit)
    a2w_3d_trans                             0x0000f08d   Thumb Code    86  ano_imu.o(i.a2w_3d_trans)
    calculate_RPY                            0x0000f139   Thumb Code   276  ano_imu.o(i.calculate_RPY)
    ch_watch_dog_feed                        0x0000f2b5   Thumb Code    30  ano_rc.o(i.ch_watch_dog_feed)
    ctrl_parameter_change_task               0x0000f2d9   Thumb Code    32  ano_flightctrl.o(i.ctrl_parameter_change_task)
    data_save                                0x0000f2fd   Thumb Code    22  ano_fcdata.o(i.data_save)
    fail_safe                                0x0000f31d   Thumb Code    74  ano_rc.o(i.fail_safe)
    fail_safe_check                          0x0000f375   Thumb Code   166  ano_rc.o(i.fail_safe_check)
    fast_atan2                               0x0000f439   Thumb Code   350  ano_math.o(i.fast_atan2)
    fix_inte_filter                          0x0000f5b5   Thumb Code   128  ano_filter.o(i.fix_inte_filter)
    gps_baudrate_config                      0x0000f635   Thumb Code    32  drv_gps.o(i.gps_baudrate_config)
    gps_config                               0x0000f65d   Thumb Code    52  drv_gps.o(i.gps_config)
    h2w_2d_trans                             0x0000f69d   Thumb Code    62  ano_imu.o(i.h2w_2d_trans)
    inte_fix_filter                          0x0000fa5f   Thumb Code   138  ano_filter.o(i.inte_fix_filter)
    land_discriminat                         0x0000fae9   Thumb Code   172  ano_flightctrl.o(i.land_discriminat)
    length_limit                             0x0000fd89   Thumb Code   140  ano_math.o(i.length_limit)
    main                                     0x0000fe19   Thumb Code    18  main.o(i.main)
    motionless_check                         0x0000fe31   Thumb Code   270  ano_sensor_basic.o(i.motionless_check)
    mpu_auto_az                              0x0000ff59   Thumb Code   212  ano_sensor_basic.o(i.mpu_auto_az)
    my_abs                                   0x0001004d   Thumb Code    26  ano_math.o(i.my_abs)
    my_deadzone                              0x00010067   Thumb Code    54  ano_math.o(i.my_deadzone)
    my_sqrt                                  0x0001009d   Thumb Code    20  ano_math.o(i.my_sqrt)
    my_sqrt_reciprocal                       0x000100b1   Thumb Code    76  ano_math.o(i.my_sqrt_reciprocal)
    one_key_land                             0x00010101   Thumb Code     8  ano_flightctrl.o(i.one_key_land)
    one_key_take_off                         0x0001010d   Thumb Code    30  ano_flightctrl.o(i.one_key_take_off)
    one_key_take_off_task                    0x00010135   Thumb Code    66  ano_flightctrl.o(i.one_key_take_off_task)
    spl0601_get_calib_param                  0x00010181   Thumb Code   436  drv_spl06.o(i.spl0601_get_calib_param)
    spl0601_get_pressure                     0x0001033d   Thumb Code   214  drv_spl06.o(i.spl0601_get_pressure)
    spl0601_get_raw_pressure                 0x00010419   Thumb Code    96  drv_spl06.o(i.spl0601_get_raw_pressure)
    spl0601_get_raw_temp                     0x0001047d   Thumb Code   100  drv_spl06.o(i.spl0601_get_raw_temp)
    spl0601_get_temperature                  0x000104e5   Thumb Code   134  drv_spl06.o(i.spl0601_get_temperature)
    spl0601_rateset                          0x00010579   Thumb Code   306  drv_spl06.o(i.spl0601_rateset)
    spl0601_start_continuous                 0x000106d5   Thumb Code    16  drv_spl06.o(i.spl0601_start_continuous)
    stick_function                           0x00010735   Thumb Code   332  ano_rc.o(i.stick_function)
    stick_function_check                     0x000108b1   Thumb Code    66  ano_rc.o(i.stick_function_check)
    stick_function_check_longpress           0x000108f3   Thumb Code    38  ano_rc.o(i.stick_function_check_longpress)
    uDMAChannelAttributeDisable              0x00010919   Thumb Code    66  udma.o(i.uDMAChannelAttributeDisable)
    uDMAChannelControlSet                    0x00010961   Thumb Code    24  udma.o(i.uDMAChannelControlSet)
    uDMAChannelDisable                       0x00010981   Thumb Code    16  udma.o(i.uDMAChannelDisable)
    uDMAChannelEnable                        0x00010995   Thumb Code    16  udma.o(i.uDMAChannelEnable)
    uDMAChannelModeGet                       0x000109a9   Thumb Code    34  udma.o(i.uDMAChannelModeGet)
    uDMAChannelTransferSet                   0x000109d1   Thumb Code   124  udma.o(i.uDMAChannelTransferSet)
    unlock                                   0x00010e11   Thumb Code   536  ano_rc.o(i.unlock)
    vec_2_cross_product                      0x00011091   Thumb Code    26  ano_math.o(i.vec_2_cross_product)
    vec_2_dot_product                        0x000110ab   Thumb Code    26  ano_math.o(i.vec_2_dot_product)
    w2h_2d_trans                             0x000110c5   Thumb Code    62  ano_imu.o(i.w2h_2d_trans)
    g_pui8LangDescriptor                     0x00011104   Data           4  usb_serial_structs.o(.constdata)
    g_pui8ManufacturerString                 0x00011108   Data          36  usb_serial_structs.o(.constdata)
    g_pui8ProductString                      0x0001112c   Data          36  usb_serial_structs.o(.constdata)
    g_pui8SerialNumberString                 0x00011150   Data          18  usb_serial_structs.o(.constdata)
    g_pui8ControlInterfaceString             0x00011162   Data          44  usb_serial_structs.o(.constdata)
    g_pui8ConfigString                       0x0001118e   Data          54  usb_serial_structs.o(.constdata)
    g_ppui8StringDescriptors                 0x000111c4   Data          24  usb_serial_structs.o(.constdata)
    gps_petrol_out_config                    0x000111dc   Data          28  drv_gps.o(.constdata)
    gps_pvt_out_config                       0x000111f8   Data          90  drv_gps.o(.constdata)
    gps_rate_out_config                      0x00011252   Data          16  drv_gps.o(.constdata)
    Enter_Send                               0x00011262   Data           9  drv_gps.o(.constdata)
    fast_atan_table                          0x000113b0   Data        1028  ano_math.o(.constdata)
    g_sCDCSerConfigSection                   0x00011d50   Data           8  usbdcdc.o(.constdata)
    g_sIADSerConfigSection                   0x00011d58   Data           8  usbdcdc.o(.constdata)
    g_pui8CDCSerCommInterface                0x00011d60   Data          35  usbdcdc.o(.constdata)
    g_sCDCSerCommInterfaceSection            0x00011d84   Data           8  usbdcdc.o(.constdata)
    g_pui8CDCSerDataInterface                0x00011d8c   Data          23  usbdcdc.o(.constdata)
    g_sCDCSerDataInterfaceSection            0x00011da4   Data           8  usbdcdc.o(.constdata)
    g_pui8CDCSerDataInterfaceHS              0x00011dac   Data          23  usbdcdc.o(.constdata)
    g_sCDCSerDataInterfaceSectionHS          0x00011dc4   Data           8  usbdcdc.o(.constdata)
    g_sCDCSerConfigHeader                    0x00011dcc   Data           8  usbdcdc.o(.constdata)
    g_sCDCSerConfigHeaderHS                  0x00011dd4   Data           8  usbdcdc.o(.constdata)
    g_sCDCCompSerConfigHeader                0x00011ddc   Data           8  usbdcdc.o(.constdata)
    g_sCDCCompSerConfigHeaderHS              0x00011de4   Data           8  usbdcdc.o(.constdata)
    g_ppCDCSerConfigDescriptors              0x00011dec   Data           4  usbdcdc.o(.constdata)
    g_ppCDCSerConfigDescriptorsHS            0x00011df0   Data           4  usbdcdc.o(.constdata)
    g_pCDCCompSerConfigDescriptors           0x00011df4   Data           4  usbdcdc.o(.constdata)
    g_pCDCCompSerConfigDescriptorsHS         0x00011df8   Data           4  usbdcdc.o(.constdata)
    g_sCDCHandlers                           0x00011dfc   Data          48  usbdcdc.o(.constdata)
    Region$$Table$$Base                      0x00011f6c   Number         0  anon$$obj.o(Region$$Table)
    Region$$Table$$Limit                     0x00011f8c   Number         0  anon$$obj.o(Region$$Table)
    para_sta                                 0x20000050   Data           4  ano_parameter.o(.data)
    checkdata_to_send                        0x2000005a   Data           1  ano_dt.o(.data)
    checksum_to_send                         0x2000005b   Data           1  ano_dt.o(.data)
    flash_save_en_cnt                        0x20000060   Data           2  ano_dt.o(.data)
    chn_en_bit                               0x2000007d   Data           1  ano_rc.o(.data)
    signal_intensity                         0x2000007e   Data           2  ano_rc.o(.data)
    unlock_f                                 0x20000080   Data           2  ano_rc.o(.data)
    stick_fun_0                              0x20000082   Data           1  ano_rc.o(.data)
    unlock_time                              0x20000084   Data           2  ano_rc.o(.data)
    test_si_cnt                              0x20000086   Data           2  ano_rc.o(.data)
    cali_gyro                                0x20000088   Data           2  ano_rc.o(.data)
    cali_acc                                 0x2000008a   Data           2  ano_rc.o(.data)
    cali_surface                             0x2000008c   Data           2  ano_rc.o(.data)
    cali_mag                                 0x2000008e   Data           4  ano_rc.o(.data)
    stick_fun_1                              0x20000092   Data           1  ano_rc.o(.data)
    stick_fun_2                              0x20000093   Data           1  ano_rc.o(.data)
    stick_fun_3                              0x20000094   Data           1  ano_rc.o(.data)
    stick_fun_4                              0x20000095   Data           1  ano_rc.o(.data)
    stick_fun_5_magcali                      0x20000096   Data           1  ano_rc.o(.data)
    led_accuracy                             0x2000009c   Data           2  ano_led.o(.data)
    LED_Brightness                           0x200000a0   Data          16  ano_led.o(.data)
    g_ui32Flags                              0x200000cc   Data           4  ano_usb.o(.data)
    g_pcStatus                               0x200000d0   Data           4  ano_usb.o(.data)
    of_buf_update_flag                       0x200000d8   Data           1  ano_of_decofusion.o(.data)
    of_rot_d_degs                            0x200000dc   Data           8  ano_of_decofusion.o(.data)
    of_fus_err                               0x200000e4   Data           8  ano_of_decofusion.o(.data)
    of_fus_err_i                             0x200000ec   Data           8  ano_of_decofusion.o(.data)
    opmv_ct_sta                              0x2000013c   Data           3  ano_opmv_ctrl.o(.data)
    g_sCDCDevice                             0x20000140   Data          96  usb_serial_structs.o(.data)
    g_sRxBuffer                              0x200001a0   Data          56  usb_serial_structs.o(.data)
    g_sTxBuffer                              0x200001d8   Data          56  usb_serial_structs.o(.data)
    of_init_type                             0x20000218   Data           1  drv_bsp.o(.data)
    Voltage                                  0x2000021c   Data           4  drv_adc.o(.data)
    sbus_flag                                0x20000220   Data           1  drv_rcin.o(.data)
    U1TxInCnt                                0x20000232   Data           1  drv_uart.o(.data)
    U1TxOutCnt                               0x20000233   Data           1  drv_uart.o(.data)
    U2TxInCnt                                0x20000234   Data           1  drv_uart.o(.data)
    U2TxOutCnt                               0x20000235   Data           1  drv_uart.o(.data)
    U3TxInCnt                                0x20000236   Data           1  drv_uart.o(.data)
    U3TxOutCnt                               0x20000237   Data           1  drv_uart.o(.data)
    U4TxInCnt                                0x20000238   Data           1  drv_uart.o(.data)
    U4TxOutCnt                               0x20000239   Data           1  drv_uart.o(.data)
    U5TxInCnt                                0x2000023a   Data           1  drv_uart.o(.data)
    U5TxOutCnt                               0x2000023b   Data           1  drv_uart.o(.data)
    baro_Offset                              0x20000248   Data           4  drv_spl06.o(.data)
    alt_3                                    0x2000024c   Data           4  drv_spl06.o(.data)
    height                                   0x20000250   Data           4  drv_spl06.o(.data)
    baro_start                               0x20000254   Data           1  drv_spl06.o(.data)
    temperature                              0x20000258   Data           4  drv_spl06.o(.data)
    alt_high                                 0x2000025c   Data           4  drv_spl06.o(.data)
    baro_pressure                            0x20000260   Data           4  drv_spl06.o(.data)
    len                                      0x20000264   Data           2  drv_gps.o(.data)
    wcx_acc_use                              0x20000268   Data           4  drv_gps.o(.data)
    wcy_acc_use                              0x2000026c   Data           4  drv_gps.o(.data)
    GPS_get_cnt                              0x20000270   Data           1  drv_gps.o(.data)
    OF_STATE                                 0x20000280   Data           1  ano_of.o(.data)
    OF_QUALITY                               0x20000281   Data           1  ano_of.o(.data)
    OF_DX                                    0x20000282   Data           1  ano_of.o(.data)
    OF_DY                                    0x20000283   Data           1  ano_of.o(.data)
    OF_DX2                                   0x20000284   Data           2  ano_of.o(.data)
    OF_DY2                                   0x20000286   Data           2  ano_of.o(.data)
    OF_DX2FIX                                0x20000288   Data           2  ano_of.o(.data)
    OF_DY2FIX                                0x2000028a   Data           2  ano_of.o(.data)
    OF_ALT                                   0x2000028c   Data           2  ano_of.o(.data)
    OF_ALT2                                  0x2000028e   Data           2  ano_of.o(.data)
    OF_GYR_X                                 0x20000290   Data           2  ano_of.o(.data)
    OF_GYR_Y                                 0x20000292   Data           2  ano_of.o(.data)
    OF_GYR_Z                                 0x20000294   Data           2  ano_of.o(.data)
    OF_GYR_X2                                0x20000296   Data           2  ano_of.o(.data)
    OF_GYR_Y2                                0x20000298   Data           2  ano_of.o(.data)
    OF_GYR_Z2                                0x2000029a   Data           2  ano_of.o(.data)
    OF_ACC_X                                 0x2000029c   Data           2  ano_of.o(.data)
    OF_ACC_Y                                 0x2000029e   Data           2  ano_of.o(.data)
    OF_ACC_Z                                 0x200002a0   Data           2  ano_of.o(.data)
    OF_ACC_X2                                0x200002a2   Data           2  ano_of.o(.data)
    OF_ACC_Y2                                0x200002a4   Data           2  ano_of.o(.data)
    OF_ACC_Z2                                0x200002a6   Data           2  ano_of.o(.data)
    OF_ATT_ROL                               0x200002a8   Data           4  ano_of.o(.data)
    OF_ATT_PIT                               0x200002ac   Data           4  ano_of.o(.data)
    OF_ATT_YAW                               0x200002b0   Data           4  ano_of.o(.data)
    OF_ATT_S1                                0x200002b4   Data           4  ano_of.o(.data)
    OF_ATT_S2                                0x200002b8   Data           4  ano_of.o(.data)
    OF_ATT_S3                                0x200002bc   Data           4  ano_of.o(.data)
    OF_ATT_S4                                0x200002c0   Data           4  ano_of.o(.data)
    temperature_err                          0x200002d0   Data           4  drv_heating.o(.data)
    temperature_err_i                        0x200002d4   Data           4  drv_heating.o(.data)
    temperature_diff                         0x200002d8   Data           4  drv_heating.o(.data)
    temperature_ctrl_val                     0x200002dc   Data           4  drv_heating.o(.data)
    offline_check_time                       0x200002e4   Data           2  drv_openmv.o(.data)
    of_init_cnt                              0x200002e8   Data           1  drv_up_flow.o(.data)
    of_buf_update_cnt                        0x200002e9   Data           1  drv_up_flow.o(.data)
    LASER_LINKOK                             0x200002ec   Data           1  drv_laser.o(.data)
    Laser_height_cm                          0x200002ee   Data           2  drv_laser.o(.data)
    switchs                                  0x200002f2   Data           8  ano_fcdata.o(.data)
    imu_data                                 0x200002fc   Data         232  ano_imu.o(.data)
    imu_state                                0x20000418   Data          24  ano_imu.o(.data)
    acc_z_auto                               0x20000450   Data           8  ano_sensor_basic.o(.data)
    acc_sum_cnt                              0x20000458   Data           2  ano_sensor_basic.o(.data)
    gyro_sum_cnt                             0x2000045a   Data           2  ano_sensor_basic.o(.data)
    acc_z_auto_cnt                           0x2000045c   Data           2  ano_sensor_basic.o(.data)
    g_old                                    0x2000045e   Data           6  ano_sensor_basic.o(.data)
    g_d_sum                                  0x20000464   Data          12  ano_sensor_basic.o(.data)
    roll_gz_comp                             0x20000470   Data           2  ano_sensor_basic.o(.data)
    wh_matrix                                0x20000474   Data          36  ano_sensor_basic.o(.data)
    ref_height_old                           0x2000049c   Data           4  ano_motioncal.o(.data)
    ref_speed_old                            0x200004a0   Data           4  ano_motioncal.o(.data)
    wcz_ref_height                           0x200004a4   Data           4  ano_motioncal.o(.data)
    wcz_ref_speed                            0x200004a8   Data           4  ano_motioncal.o(.data)
    wcz_ref_acc                              0x200004ac   Data           4  ano_motioncal.o(.data)
    flying_cnt                               0x200004de   Data           2  ano_flightctrl.o(.data)
    landing_cnt                              0x200004e0   Data           2  ano_flightctrl.o(.data)
    stop_baro_hpf                            0x200004e4   Data           4  ano_flightctrl.o(.data)
    jsdata                                   0x200004f4   Data           6  ano_flightctrl.o(.data)
    speed_mode_old                           0x200004fa   Data           1  ano_flightctrl.o(.data)
    flight_mode_old                          0x200004fb   Data           1  ano_flightctrl.o(.data)
    test_time_cnt                            0x20000508   Data           2  ano_flightdatacal.o(.data)
    baro_height                              0x20000514   Data           4  ano_flightdatacal.o(.data)
    baro_h_offset                            0x20000518   Data           4  ano_flightdatacal.o(.data)
    ref_height_get_1                         0x2000051c   Data           4  ano_flightdatacal.o(.data)
    ref_height_get_2                         0x20000520   Data           4  ano_flightdatacal.o(.data)
    ref_height_used                          0x20000524   Data           4  ano_flightdatacal.o(.data)
    baro2tof_offset                          0x20000528   Data           4  ano_flightdatacal.o(.data)
    tof2baro_offset                          0x2000052c   Data           4  ano_flightdatacal.o(.data)
    baro_fix1                                0x20000530   Data           4  ano_flightdatacal.o(.data)
    baro_fix2                                0x20000534   Data           4  ano_flightdatacal.o(.data)
    baro_fix                                 0x20000538   Data           4  ano_flightdatacal.o(.data)
    wcz_acc_use                              0x20000540   Data           4  ano_flightdatacal.o(.data)
    ref_tof_height                           0x20000544   Data           2  ano_flightdatacal.o(.data)
    vel_fb_d_lpf                             0x20000558   Data           8  ano_locctrl.o(.data)
    vel_fb_h                                 0x20000560   Data           8  ano_locctrl.o(.data)
    vel_fb_w                                 0x20000568   Data           8  ano_locctrl.o(.data)
    vel_fb_fix_w                             0x20000570   Data           8  ano_locctrl.o(.data)
    mag                                      0x20000590   Data           8  ano_magprocess.o(.data)
    motor                                    0x200005a4   Data           8  ano_motorctrl.o(.data)
    motor_step                               0x200005ac   Data           8  ano_motorctrl.o(.data)
    IDLING                                   0x200005b6   Data           2  ano_motorctrl.o(.data)
    Plane_Votage                             0x200005b8   Data           4  ano_power.o(.data)
    g_pui8CDCSerDeviceDescriptor             0x200005c6   Data          18  usbdcdc.o(.data)
    g_pui8CDCSerDescriptor                   0x200005d8   Data           9  usbdcdc.o(.data)
    g_pui8IADSerDescriptor                   0x200005e1   Data           8  usbdcdc.o(.data)
    g_psCDCSerSections                       0x200005ec   Data          12  usbdcdc.o(.data)
    g_psCDCSerSectionsHS                     0x200005f8   Data          12  usbdcdc.o(.data)
    g_psCDCCompSerSections                   0x20000604   Data          16  usbdcdc.o(.data)
    g_psCDCCompSerSectionsHS                 0x20000614   Data          16  usbdcdc.o(.data)
    g_iUSBMode                               0x20000624   Data           1  usbmode.o(.data)
    g_eOTGModeState                          0x20000626   Data           1  usbmode.o(.data)
    g_ui32WaitTicks                          0x20000628   Data           4  usbmode.o(.data)
    g_ui32PollRate                           0x2000062c   Data           4  usbmode.o(.data)
    g_ppsDevInfo                             0x20000640   Data           4  usbdenum.o(.data)
    g_bUSBTimerInitialized                   0x20000644   Data           1  usbtick.o(.data)
    g_ui32CurrentUSBTick                     0x20000648   Data           4  usbtick.o(.data)
    g_ui32USBSOFCount                        0x2000064c   Data           4  usbtick.o(.data)
    Ano_Parame                               0x20000a6c   Data        2048  ano_parameter.o(.bss)
    program_ctrl                             0x2000126c   Data          84  ano_flyctrl.o(.bss)
    ParValList                               0x200012c0   Data         400  ano_dt.o(.bss)
    f                                        0x20001450   Data          20  ano_dt.o(.bss)
    data_to_send                             0x20001464   Data          50  ano_dt.o(.bss)
    CH_N                                     0x200015d6   Data          16  ano_rc.o(.bss)
    LED_STA                                  0x200015e6   Data          15  ano_led.o(.bss)
    pc_user                                  0x200015f8   Data          32  ano_programctrl_user.o(.bss)
    of_data                                  0x20001618   Data          10  ano_of_decofusion.o(.bss)
    of_rdf                                   0x20001624   Data          72  ano_of_decofusion.o(.bss)
    ano_opmv_cbt_ctrl                        0x2000166c   Data          48  ano_opmv_cbtracking_ctrl.o(.bss)
    ano_opmv_lt_ctrl                         0x200016ac   Data          28  ano_opmv_linetracking_ctrl.o(.bss)
    g_pui8USBRxBuffer                        0x200016c8   Data         256  usb_serial_structs.o(.bss)
    g_pui8USBTxBuffer                        0x200017c8   Data         256  usb_serial_structs.o(.bss)
    RC_PPM                                   0x200018c8   Data          32  drv_rcin.o(.bss)
    Rc_Sbus_In                               0x200018e8   Data          32  drv_rcin.o(.bss)
    U1TxDataTemp                             0x20001921   Data         256  drv_uart.o(.bss)
    U2TxDataTemp                             0x20001a21   Data         256  drv_uart.o(.bss)
    U3TxDataTemp                             0x20001b21   Data         256  drv_uart.o(.bss)
    U4TxDataTemp                             0x20001c21   Data         256  drv_uart.o(.bss)
    U5TxDataTemp                             0x20001d21   Data         256  drv_uart.o(.bss)
    mpu_buffer                               0x20001e21   Data          14  drv_icm20602.o(.bss)
    Gps_information                          0x20001e60   Data         112  drv_gps.o(.bss)
    Gps_send_Temp                            0x20001ed0   Data          20  drv_gps.o(.bss)
    GPS_data_buff                            0x20001ee4   Data         100  drv_gps.o(.bss)
    uwb_data                                 0x20001f7c   Data          60  ano_uwb.o(.bss)
    temperature_fb                           0x200021b8   Data          12  drv_heating.o(.bss)
    openmv_buf                               0x200021c4   Data          20  drv_openmv.o(.bss)
    opmv                                     0x200021d8   Data          26  drv_openmv.o(.bss)
    OF_DATA                                  0x200021f2   Data          14  drv_up_flow.o(.bss)
    save                                     0x20002218   Data          64  ano_fcdata.o(.bss)
    flag                                     0x20002258   Data          30  ano_fcdata.o(.bss)
    fc_stv                                   0x20002278   Data          16  ano_fcdata.o(.bss)
    sens_hd_check                            0x20002288   Data           9  ano_fcdata.o(.bss)
    att_matrix                               0x20002294   Data          36  ano_imu.o(.bss)
    imu_test                                 0x200022dc   Data          12  ano_imu.o(.bss)
    center_pos                               0x200022e8   Data          60  ano_sensor_basic.o(.bss)
    sensor                                   0x20002324   Data          80  ano_sensor_basic.o(.bss)
    sensor_val                               0x20002374   Data          24  ano_sensor_basic.o(.bss)
    sensor_val_rot                           0x2000238c   Data          24  ano_sensor_basic.o(.bss)
    sensor_val_ref                           0x200023a4   Data          24  ano_sensor_basic.o(.bss)
    sum_temp                                 0x200023bc   Data          28  ano_sensor_basic.o(.bss)
    acc_auto_sum_temp                        0x200023d8   Data          12  ano_sensor_basic.o(.bss)
    wcz_acc_fus                              0x2000245c   Data          28  ano_motioncal.o(.bss)
    wcz_spe_fus                              0x20002478   Data          24  ano_motioncal.o(.bss)
    wcz_hei_fus                              0x20002490   Data          24  ano_motioncal.o(.bss)
    alt_arg_2                                0x200024a8   Data          24  ano_altctrl.o(.bss)
    alt_val_2                                0x200024c0   Data          40  ano_altctrl.o(.bss)
    alt_arg_1                                0x200024e8   Data          24  ano_altctrl.o(.bss)
    alt_val_1                                0x20002500   Data          40  ano_altctrl.o(.bss)
    arg_2                                    0x20002528   Data          72  ano_attctrl.o(.bss)
    arg_1                                    0x20002570   Data          72  ano_attctrl.o(.bss)
    val_2                                    0x200025b8   Data         120  ano_attctrl.o(.bss)
    val_1                                    0x20002630   Data         120  ano_attctrl.o(.bss)
    att_2l_ct                                0x200026a8   Data          36  ano_attctrl.o(.bss)
    att_1l_ct                                0x200026cc   Data          28  ano_attctrl.o(.bss)
    rolling_flag                             0x200026f8   Data          24  ano_attctrl.o(.bss)
    fs                                       0x20002710   Data          52  ano_flightctrl.o(.bss)
    loc_arg_1                                0x20002744   Data          48  ano_locctrl.o(.bss)
    loc_val_1                                0x20002774   Data          80  ano_locctrl.o(.bss)
    loc_arg_1_fix                            0x200027c4   Data          48  ano_locctrl.o(.bss)
    loc_val_1_fix                            0x200027f4   Data          80  ano_locctrl.o(.bss)
    loc_ctrl_1                               0x20002844   Data          36  ano_locctrl.o(.bss)
    loc_ctrl_2                               0x20002868   Data          36  ano_locctrl.o(.bss)
    mc                                       0x2000288c   Data          16  ano_motorctrl.o(.bss)
    g_psDCDInst                              0x200028dc   Data          80  usbdenum.o(.bss)
    g_pfnTickHandlers                        0x2000292c   Data          24  usbtick.o(.bss)
    g_pvTickInstance                         0x20002944   Data          24  usbtick.o(.bss)
    __initial_sp                             0x20003470   Data           0  startup_tm4c123.o(STACK)



==============================================================================

Memory Map of the image

  Image Entry point : 0x000002a9

  Load Region LR_1 (Base: 0x00000000, Size: 0x000129f8, Max: 0xffffffff, ABSOLUTE, COMPRESSED[0x00012088])

    Execution Region ER_RO (Base: 0x00000000, Size: 0x00011f8c, Max: 0xffffffff, ABSOLUTE)

    Base Addr    Size         Type   Attr      Idx    E Section Name        Object

    0x00000000   0x0000026c   Data   RO         1148    RESET               startup_tm4c123.o
    0x0000026c   0x00000000   Code   RO         7090  * .ARM.Collect$$$$00000000  mc_w.l(entry.o)
    0x0000026c   0x00000004   Code   RO         7117    .ARM.Collect$$$$00000001  mc_w.l(entry2.o)
    0x00000270   0x00000004   Code   RO         7120    .ARM.Collect$$$$00000004  mc_w.l(entry5.o)
    0x00000274   0x00000000   Code   RO         7122    .ARM.Collect$$$$00000008  mc_w.l(entry7b.o)
    0x00000274   0x00000000   Code   RO         7124    .ARM.Collect$$$$0000000A  mc_w.l(entry8b.o)
    0x00000274   0x00000008   Code   RO         7125    .ARM.Collect$$$$0000000B  mc_w.l(entry9a.o)
    0x0000027c   0x00000000   Code   RO         7127    .ARM.Collect$$$$0000000D  mc_w.l(entry10a.o)
    0x0000027c   0x00000000   Code   RO         7129    .ARM.Collect$$$$0000000F  mc_w.l(entry11a.o)
    0x0000027c   0x00000004   Code   RO         7118    .ARM.Collect$$$$00002712  mc_w.l(entry2.o)
    0x00000280   0x00000026   Code   RO         5828    .emb_text           driverlib.lib(cpu.o)
    0x000002a6   0x00000002   PAD
    0x000002a8   0x000000fc   Code   RO         1149  * .text               startup_tm4c123.o
    0x000003a4   0x00000024   Code   RO         7093    .text               mc_w.l(memcpya.o)
    0x000003c8   0x0000014e   Code   RO         7097    .text               mf_w.l(dadd.o)
    0x00000516   0x000000e4   Code   RO         7099    .text               mf_w.l(dmul.o)
    0x000005fa   0x000000de   Code   RO         7101    .text               mf_w.l(ddiv.o)
    0x000006d8   0x00000022   Code   RO         7103    .text               mf_w.l(dflti.o)
    0x000006fa   0x0000001a   Code   RO         7105    .text               mf_w.l(dfltui.o)
    0x00000714   0x0000003e   Code   RO         7107    .text               mf_w.l(dfixi.o)
    0x00000752   0x00000026   Code   RO         7109    .text               mf_w.l(f2d.o)
    0x00000778   0x00000038   Code   RO         7115    .text               mf_w.l(d2f.o)
    0x000007b0   0x0000001e   Code   RO         7131    .text               mc_w.l(llshl.o)
    0x000007ce   0x00000020   Code   RO         7133    .text               mc_w.l(llushr.o)
    0x000007ee   0x00000024   Code   RO         7135    .text               mc_w.l(llsshr.o)
    0x00000812   0x00000000   Code   RO         7137    .text               mc_w.l(iusefp.o)
    0x00000812   0x0000006e   Code   RO         7138    .text               mf_w.l(fepilogue.o)
    0x00000880   0x000000ba   Code   RO         7140    .text               mf_w.l(depilogue.o)
    0x0000093a   0x00000002   PAD
    0x0000093c   0x00000024   Code   RO         7142    .text               mc_w.l(init.o)
    0x00000960   0x00000056   Code   RO         7152    .text               mc_w.l(__dczerorl2.o)
    0x000009b6   0x00000002   PAD
    0x000009b8   0x00000094   Code   RO         1343    i.ADC0Handler       drv_adc.o
    0x00000a4c   0x00000068   Code   RO         3331    i.ADCIntRegister    driverlib.lib(adc.o)
    0x00000ab4   0x0000010c   Code   RO         1011    i.ANO_CBTracking_Calcu  ano_opmv_cbtracking_ctrl.o
    0x00000bc0   0x00000074   Code   RO         1012    i.ANO_CBTracking_Ctrl  ano_opmv_cbtracking_ctrl.o
    0x00000c34   0x000002b8   Code   RO         1013    i.ANO_CBTracking_Decoupling  ano_opmv_cbtracking_ctrl.o
    0x00000eec   0x00000050   Code   RO         1014    i.ANO_CBTracking_Task  ano_opmv_cbtracking_ctrl.o
    0x00000f3c   0x000004bc   Code   RO          413    i.ANO_DT_Data_Exchange  ano_dt.o
    0x000013f8   0x0000017c   Code   RO          414    i.ANO_DT_Data_Receive_Anl  ano_dt.o
    0x00001574   0x00000074   Code   RO          415    i.ANO_DT_Data_Receive_Anl_Task  ano_dt.o
    0x000015e8   0x000000ec   Code   RO          416    i.ANO_DT_Data_Receive_Prepare  ano_dt.o
    0x000016d4   0x000000ec   Code   RO          417    i.ANO_DT_Data_Receive_Prepare_USB  ano_dt.o
    0x000017c0   0x0000002c   Code   RO          418    i.ANO_DT_GetParame  ano_dt.o
    0x000017ec   0x00000490   Code   RO          419    i.ANO_DT_ParListToParUsed  ano_dt.o
    0x00001c7c   0x000004d4   Code   RO          420    i.ANO_DT_ParUsedToParList  ano_dt.o
    0x00002150   0x000000f4   Code   RO          421    i.ANO_DT_SendCmd    ano_dt.o
    0x00002244   0x000000ec   Code   RO          422    i.ANO_DT_SendParame  ano_dt.o
    0x00002330   0x000000a4   Code   RO          423    i.ANO_DT_SendSensorSta  ano_dt.o
    0x000023d4   0x0000008c   Code   RO          425    i.ANO_DT_SendString  ano_dt.o
    0x00002460   0x0000001c   Code   RO          426    i.ANO_DT_Send_Data  ano_dt.o
    0x0000247c   0x00000160   Code   RO          427    i.ANO_DT_Send_Location  ano_dt.o
    0x000025dc   0x00000138   Code   RO          428    i.ANO_DT_Send_MotoPWM  ano_dt.o
    0x00002714   0x00000098   Code   RO          429    i.ANO_DT_Send_Power  ano_dt.o
    0x000027ac   0x00000170   Code   RO          430    i.ANO_DT_Send_RCData  ano_dt.o
    0x0000291c   0x00000188   Code   RO          431    i.ANO_DT_Send_Senser  ano_dt.o
    0x00002aa4   0x000000e4   Code   RO          432    i.ANO_DT_Send_Senser2  ano_dt.o
    0x00002b88   0x00000108   Code   RO          433    i.ANO_DT_Send_Speed  ano_dt.o
    0x00002c90   0x00000164   Code   RO          434    i.ANO_DT_Send_Status  ano_dt.o
    0x00002df4   0x000001c0   Code   RO          435    i.ANO_DT_Send_User  ano_dt.o
    0x00002fb4   0x00000070   Code   RO          436    i.ANO_DT_Send_VER   ano_dt.o
    0x00003024   0x000000d4   Code   RO          437    i.ANO_DT_Send_Version  ano_dt.o
    0x000030f8   0x00000278   Code   RO         1062    i.ANO_LT_StepProcedure  ano_opmv_linetracking_ctrl.o
    0x00003370   0x000000dc   Code   RO         1064    i.ANO_LTracking_Ctrl  ano_opmv_linetracking_ctrl.o
    0x0000344c   0x0000001c   Code   RO          932    i.ANO_OFDF_Task     ano_of_decofusion.o
    0x00003468   0x000000d4   Code   RO          933    i.ANO_OF_Data_Get   ano_of_decofusion.o
    0x0000353c   0x00000048   Code   RO          934    i.ANO_OF_Data_Prepare_Task  ano_of_decofusion.o
    0x00003584   0x000000b0   Code   RO          935    i.ANO_OF_Decouple   ano_of_decofusion.o
    0x00003634   0x000001ec   Code   RO          936    i.ANO_OF_Fusion     ano_of_decofusion.o
    0x00003820   0x000000f4   Code   RO         1115    i.ANO_OPMV_Ctrl_Task  ano_opmv_ctrl.o
    0x00003914   0x00000018   Code   RO         3010    i.All_PID_Init      ano_flightctrl.o
    0x0000392c   0x000001d4   Code   RO         2862    i.Alt_1level_Ctrl   ano_altctrl.o
    0x00003b00   0x0000003c   Code   RO         2863    i.Alt_1level_PID_Init  ano_altctrl.o
    0x00003b3c   0x00000208   Code   RO         2864    i.Alt_2level_Ctrl   ano_altctrl.o
    0x00003d44   0x0000003c   Code   RO         2865    i.Alt_2level_PID_Init  ano_altctrl.o
    0x00003d80   0x00000070   Code   RO         2091    i.AnoOF_Check       ano_of.o
    0x00003df0   0x000001f0   Code   RO         2092    i.AnoOF_DataAnl     ano_of.o
    0x00003fe0   0x0000000c   Code   RO         2093    i.AnoOF_DataAnl_Task  ano_of.o
    0x00003fec   0x000000f4   Code   RO         2094    i.AnoOF_GetOneByte  ano_of.o
    0x000040e0   0x0000007c   Code   RO          799    i.AnoUsbCdcInit     ano_usb.o
    0x0000415c   0x00000028   Code   RO          800    i.AnoUsbCdcRead     ano_usb.o
    0x00004184   0x00000020   Code   RO          801    i.AnoUsbCdcSend     ano_usb.o
    0x000041a4   0x00000024   Code   RO          288    i.Ano_Parame_Read   ano_parameter.o
    0x000041c8   0x0000001c   Code   RO          289    i.Ano_Parame_Write  ano_parameter.o
    0x000041e4   0x00000084   Code   RO          290    i.Ano_Parame_Write_task  ano_parameter.o
    0x00004268   0x00000060   Code   RO         2140    i.Ano_UWB_Data_Calcu_Task  ano_uwb.o
    0x000042c8   0x00000268   Code   RO         2941    i.Att_1level_Ctrl   ano_attctrl.o
    0x00004530   0x000000a4   Code   RO         2942    i.Att_1level_PID_Init  ano_attctrl.o
    0x000045d4   0x000005e0   Code   RO         2943    i.Att_2level_Ctrl   ano_attctrl.o
    0x00004bb4   0x00000084   Code   RO         2944    i.Att_2level_PID_Init  ano_attctrl.o
    0x00004c38   0x000001f0   Code   RO         2866    i.Auto_Take_Off_Land_Task  ano_altctrl.o
    0x00004e28   0x000000ee   Code   RO         5507    i.CDCTickHandler    usblib.lib(usbdcdc.o)
    0x00004f16   0x00000002   PAD
    0x00004f18   0x00000024   Code   RO         2721    i.Center_Pos_Set    ano_sensor_basic.o
    0x00004f3c   0x0000009c   Code   RO          802    i.ControlHandler    ano_usb.o
    0x00004fd8   0x00000040   Code   RO         6663    i.DMAUSBIntHandler  usblib.lib(usbdma.o)
    0x00005018   0x0000000e   Code   RO         6664    i.DMAUSBIntStatusClear  usblib.lib(usbdma.o)
    0x00005026   0x00000004   Code   RO         6665    i.DMAUSBStatus      usblib.lib(usbdma.o)
    0x0000502a   0x00000002   PAD
    0x0000502c   0x00000038   Code   RO         1848    i.Drv_AK8975CSPinInit  drv_ak8975.o
    0x00005064   0x00000034   Code   RO         1849    i.Drv_AK8975_Read   drv_ak8975.o
    0x00005098   0x00000018   Code   RO         1344    i.Drv_Adc0Trigger   drv_adc.o
    0x000050b0   0x000000b8   Code   RO         1345    i.Drv_AdcInit       drv_adc.o
    0x00005168   0x000000e8   Code   RO         1230    i.Drv_BspInit       drv_bsp.o
    0x00005250   0x00000078   Code   RO         2011    i.Drv_GpsGetOneByte  drv_gps.o
    0x000052c8   0x0000002e   Code   RO         2012    i.Drv_GpsPin_Init   drv_gps.o
    0x000052f6   0x00000002   PAD
    0x000052f8   0x00000034   Code   RO         1521    i.Drv_HeatSet       drv_pwmout.o
    0x0000532c   0x00000010   Code   RO         2183    i.Drv_HeatingSet    drv_heating.o
    0x0000533c   0x00000038   Code   RO         1751    i.Drv_Icm20602CSPinInit  drv_icm20602.o
    0x00005374   0x000000f0   Code   RO         1752    i.Drv_Icm20602Init  drv_icm20602.o
    0x00005464   0x00000014   Code   RO         1753    i.Drv_Icm20602IrqHandler  drv_icm20602.o
    0x00005478   0x0000007c   Code   RO         1754    i.Drv_Icm20602ReadyPinInit  drv_icm20602.o
    0x000054f4   0x00000018   Code   RO         1755    i.Drv_Icm20602_Read  drv_icm20602.o
    0x0000550c   0x000000bc   Code   RO         2311    i.Drv_Laser_GetOneByte  drv_laser.o
    0x000055c8   0x0000004c   Code   RO         2312    i.Drv_Laser_Init    drv_laser.o
    0x00005614   0x000000bc   Code   RO         1388    i.Drv_LedOnOff      drv_led.o
    0x000056d0   0x000000d8   Code   RO         1522    i.Drv_MotorPWMSet   drv_pwmout.o
    0x000057a8   0x0000012c   Code   RO         2273    i.Drv_OFInit        drv_up_flow.o
    0x000058d4   0x000000dc   Code   RO         1458    i.Drv_PpmInit       drv_rcin.o
    0x000059b0   0x000002e0   Code   RO         1523    i.Drv_PwmOutInit    drv_pwmout.o
    0x00005c90   0x00000038   Code   RO         1899    i.Drv_SPL06CSPinInit  drv_spl06.o
    0x00005cc8   0x000000b8   Code   RO         1459    i.Drv_SbusInit      drv_rcin.o
    0x00005d80   0x00000044   Code   RO         1231    i.Drv_SenserCsPinInit  drv_bsp.o
    0x00005dc4   0x00000098   Code   RO         1560    i.Drv_Spi0Init      drv_spi.o
    0x00005e5c   0x0000001e   Code   RO         1561    i.Drv_Spi0Receive   drv_spi.o
    0x00005e7a   0x00000002   PAD
    0x00005e7c   0x00000040   Code   RO         1562    i.Drv_Spi0SingleWirteAndRead  drv_spi.o
    0x00005ebc   0x00000058   Code   RO         1900    i.Drv_Spl0601Init   drv_spl06.o
    0x00005f14   0x000000c0   Code   RO         1901    i.Drv_Spl0601_Read  drv_spl06.o
    0x00005fd4   0x000000d0   Code   RO         1605    i.Drv_Uart1Init     drv_uart.o
    0x000060a4   0x00000034   Code   RO         1606    i.Drv_Uart1SendBuf  drv_uart.o
    0x000060d8   0x00000044   Code   RO         1607    i.Drv_Uart1TxCheck  drv_uart.o
    0x0000611c   0x000000d8   Code   RO         1608    i.Drv_Uart2Init     drv_uart.o
    0x000061f4   0x00000034   Code   RO         1609    i.Drv_Uart2SendBuf  drv_uart.o
    0x00006228   0x00000044   Code   RO         1610    i.Drv_Uart2TxCheck  drv_uart.o
    0x0000626c   0x000000d8   Code   RO         1611    i.Drv_Uart3Init     drv_uart.o
    0x00006344   0x00000044   Code   RO         1613    i.Drv_Uart3TxCheck  drv_uart.o
    0x00006388   0x000000d8   Code   RO         1614    i.Drv_Uart4Init     drv_uart.o
    0x00006460   0x00000034   Code   RO         1615    i.Drv_Uart4SendBuf  drv_uart.o
    0x00006494   0x00000044   Code   RO         1616    i.Drv_Uart4TxCheck  drv_uart.o
    0x000064d8   0x000000f4   Code   RO         1617    i.Drv_Uart5Init     drv_uart.o
    0x000065cc   0x00000044   Code   RO         1619    i.Drv_Uart5TxCheck  drv_uart.o
    0x00006610   0x00000088   Code   RO         1389    i.Dvr_LedInit       drv_led.o
    0x00006698   0x00000020   Code   RO         1418    i.Dvr_ParamterInit  drv_paramter.o
    0x000066b8   0x0000001c   Code   RO         1419    i.Dvr_ParamterRead  drv_paramter.o
    0x000066d4   0x0000001c   Code   RO         1420    i.Dvr_ParamterSave  drv_paramter.o
    0x000066f0   0x0000005c   Code   RO         3106    i.Fc_Sensor_Get     ano_flightdatacal.o
    0x0000674c   0x000000d4   Code   RO         3011    i.Flight_Mode_Set   ano_flightctrl.o
    0x00006820   0x000004c8   Code   RO         3012    i.Flight_State_Task  ano_flightctrl.o
    0x00006ce8   0x0000002c   Code   RO          355    i.FlyCtrlDataAnl    ano_flyctrl.o
    0x00006d14   0x00000070   Code   RO          356    i.FlyCtrlReset      ano_flyctrl.o
    0x00006d84   0x0000086c   Code   RO          357    i.FlyCtrl_Task      ano_flyctrl.o
    0x000075f0   0x00000006   Code   RO         3598    i.GPIOIntClear      driverlib.lib(gpio.o)
    0x000075f6   0x0000000c   Code   RO         3600    i.GPIOIntEnable     driverlib.lib(gpio.o)
    0x00007602   0x0000001a   Code   RO         3601    i.GPIOIntRegister   driverlib.lib(gpio.o)
    0x0000761c   0x000001b8   Code   RO         2013    i.GPS_Data_Processing_Task  drv_gps.o
    0x000077d4   0x00000198   Code   RO         2014    i.GPS_data_analysis  drv_gps.o
    0x0000796c   0x00000060   Code   RO         2015    i.GPS_ubx_check_sum  drv_gps.o
    0x000079cc   0x00000034   Code   RO         1233    i.GetSysRunTimeUs   drv_bsp.o
    0x00007a00   0x00000032   Code   RO         5508    i.HandleConfigChange  usblib.lib(usbdcdc.o)
    0x00007a32   0x000000c2   Code   RO         5509    i.HandleDevice      usblib.lib(usbdcdc.o)
    0x00007af4   0x00000022   Code   RO         5510    i.HandleDisconnect  usblib.lib(usbdcdc.o)
    0x00007b16   0x0000009a   Code   RO         5511    i.HandleEP0Data     usblib.lib(usbdcdc.o)
    0x00007bb0   0x0000007e   Code   RO         5512    i.HandleEndpoints   usblib.lib(usbdcdc.o)
    0x00007c2e   0x00000176   Code   RO         5513    i.HandleRequests    usblib.lib(usbdcdc.o)
    0x00007da4   0x0000000c   Code   RO         5514    i.HandleResume      usblib.lib(usbdcdc.o)
    0x00007db0   0x0000000c   Code   RO         5515    i.HandleSuspend     usblib.lib(usbdcdc.o)
    0x00007dbc   0x000000e0   Code   RO         1756    i.ICM_Get_Data      drv_icm20602.o
    0x00007e9c   0x000000a8   Code   RO         3107    i.IMU_Update_Task   ano_flightdatacal.o
    0x00007f44   0x000009a0   Code   RO         2666    i.IMU_update        ano_imu.o
    0x000088e4   0x00000038   Code   RO           92    i.INT_1ms_Task      ano_scheduler.o
    0x0000891c   0x00000064   Code   RO         5838    i.IntDisable        driverlib.lib(interrupt.o)
    0x00008980   0x00000064   Code   RO         5839    i.IntEnable         driverlib.lib(interrupt.o)
    0x000089e4   0x00000060   Code   RO         5840    i.IntIsEnabled      driverlib.lib(interrupt.o)
    0x00008a44   0x0000000e   Code   RO         5841    i.IntMasterDisable  driverlib.lib(interrupt.o)
    0x00008a52   0x0000000e   Code   RO         5842    i.IntMasterEnable   driverlib.lib(interrupt.o)
    0x00008a60   0x00000034   Code   RO         5851    i.IntRegister       driverlib.lib(interrupt.o)
    0x00008a94   0x00000034   Code   RO         6526    i.InternalUSBRegisterTickHandler  usblib.lib(usbtick.o)
    0x00008ac8   0x00000038   Code   RO         6527    i.InternalUSBStartOfFrameTick  usblib.lib(usbtick.o)
    0x00008b00   0x00000038   Code   RO         6528    i.InternalUSBTickInit  usblib.lib(usbtick.o)
    0x00008b38   0x000000d4   Code   RO          739    i.LED_1ms_DRV       ano_led.o
    0x00008c0c   0x0000034c   Code   RO          740    i.LED_Task2         ano_led.o
    0x00008f58   0x00000c50   Code   RO         3166    i.Loc_1level_Ctrl   ano_locctrl.o
    0x00009ba8   0x00000184   Code   RO         3167    i.Loc_1level_PID_Init  ano_locctrl.o
    0x00009d2c   0x00000040   Code   RO           93    i.Loop_Task_0       ano_scheduler.o
    0x00009d6c   0x00000038   Code   RO           94    i.Loop_Task_1       ano_scheduler.o
    0x00009da4   0x0000003c   Code   RO           95    i.Loop_Task_2       ano_scheduler.o
    0x00009de0   0x00000060   Code   RO           96    i.Loop_Task_5       ano_scheduler.o
    0x00009e40   0x000001b8   Code   RO           97    i.Loop_Task_8       ano_scheduler.o
    0x00009ff8   0x00000018   Code   RO           98    i.Loop_Task_9       ano_scheduler.o
    0x0000a010   0x000001f8   Code   RO         2722    i.MPU6050_Data_Offset  ano_sensor_basic.o
    0x0000a208   0x00000068   Code   RO         3207    i.Mag_Cal_Reset     ano_magprocess.o
    0x0000a270   0x00000058   Code   RO         3208    i.Mag_Cal_XY        ano_magprocess.o
    0x0000a2c8   0x00000048   Code   RO         3209    i.Mag_Cal_Z         ano_magprocess.o
    0x0000a310   0x000003e0   Code   RO         3210    i.Mag_Data_Deal_Task  ano_magprocess.o
    0x0000a6f0   0x00000058   Code   RO         1850    i.Mag_Get           drv_ak8975.o
    0x0000a748   0x0000003c   Code   RO         3108    i.Mag_Update_Task   ano_flightdatacal.o
    0x0000a784   0x00000078   Code   RO           99    i.Main_Task         ano_scheduler.o
    0x0000a7fc   0x00000230   Code   RO         3252    i.Motor_Ctrl_Task   ano_motorctrl.o
    0x0000aa2c   0x00000024   Code   RO         1234    i.MyDelayMs         drv_bsp.o
    0x0000aa50   0x00000100   Code   RO         2274    i.OFGetByte         drv_up_flow.o
    0x0000ab50   0x00000158   Code   RO          937    i.OF_INS_Get        ano_of_decofusion.o
    0x0000aca8   0x00000038   Code   RO          938    i.OF_INS_Reset      ano_of_decofusion.o
    0x0000ace0   0x00000064   Code   RO          939    i.OF_State          ano_of_decofusion.o
    0x0000ad44   0x0000011c   Code   RO         2226    i.OpenMV_Byte_Get   drv_openmv.o
    0x0000ae60   0x00000014   Code   RO         2227    i.OpenMV_Check_Reset  drv_openmv.o
    0x0000ae74   0x000000a4   Code   RO         2228    i.OpenMV_Data_Analysis  drv_openmv.o
    0x0000af18   0x0000002c   Code   RO         2229    i.OpenMV_Offline_Check  drv_openmv.o
    0x0000af44   0x000001d8   Code   RO          291    i.PID_Rest          ano_parameter.o
    0x0000b11c   0x00000120   Code   RO         2639    i.PID_calculate     ano_pid.o
    0x0000b23c   0x00000050   Code   RO         1460    i.PPM_Cal           drv_rcin.o
    0x0000b28c   0x00000084   Code   RO         1461    i.PPM_Decode        drv_rcin.o
    0x0000b310   0x00000008   Code   RO         2348    i.Para_Data_Init    ano_fcdata.o
    0x0000b318   0x0000005c   Code   RO          292    i.Parame_Copy_Fc2para  ano_parameter.o
    0x0000b374   0x00000060   Code   RO          293    i.Parame_Copy_Para2fc  ano_parameter.o
    0x0000b3d4   0x00000100   Code   RO          294    i.Parame_Reset      ano_parameter.o
    0x0000b4d4   0x000001dc   Code   RO         3287    i.Power_UpdateTask  ano_power.o
    0x0000b6b0   0x00000086   Code   RO         5516    i.ProcessDataFromHost  usblib.lib(usbdcdc.o)
    0x0000b736   0x00000002   PAD
    0x0000b738   0x00000064   Code   RO         5517    i.ProcessDataToHost  usblib.lib(usbdcdc.o)
    0x0000b79c   0x00000034   Code   RO          890    i.Program_Ctrl_User_Set_HXYcmps  ano_programctrl_user.o
    0x0000b7d0   0x00000054   Code   RO          891    i.Program_Ctrl_User_Set_YAWdps  ano_programctrl_user.o
    0x0000b824   0x0000013c   Code   RO          646    i.RC_duty_task      ano_rc.o
    0x0000b960   0x00000028   Code   RO          647    i.Remote_Control_Init  ano_rc.o
    0x0000b988   0x00000026   Code   RO          803    i.RxHandler         ano_usb.o
    0x0000b9ae   0x00000002   PAD
    0x0000b9b0   0x00000200   Code   RO         1462    i.Sbus_Decode       drv_rcin.o
    0x0000bbb0   0x00000050   Code   RO         1463    i.Sbus_IRQHandler   drv_rcin.o
    0x0000bc00   0x000000a6   Code   RO         5411    i.ScheduleNextTransmission  usblib.lib(usbbuffer.o)
    0x0000bca6   0x00000044   Code   RO         5519    i.SendBreak         usblib.lib(usbdcdc.o)
    0x0000bcea   0x00000096   Code   RO         5520    i.SendSerialState   usblib.lib(usbdcdc.o)
    0x0000bd80   0x00000018   Code   RO         2723    i.Sensor_Basic_Init  ano_sensor_basic.o
    0x0000bd98   0x000003d0   Code   RO         2724    i.Sensor_Data_Prepare  ano_sensor_basic.o
    0x0000c168   0x00000044   Code   RO         2945    i.Set_Att_1level_Ki  ano_attctrl.o
    0x0000c1ac   0x00000030   Code   RO         2946    i.Set_Att_2level_Ki  ano_attctrl.o
    0x0000c1dc   0x00000002   Code   RO         3013    i.Speed_Mode_Switch  ano_flightctrl.o
    0x0000c1de   0x00000002   PAD
    0x0000c1e0   0x00000198   Code   RO         3014    i.Swtich_State_Task  ano_flightctrl.o
    0x0000c378   0x00000154   Code   RO         3902    i.SysCtlClockGet    driverlib.lib(sysctl.o)
    0x0000c4cc   0x00000028   Code   RO         3933    i.SysCtlPeripheralEnable  driverlib.lib(sysctl.o)
    0x0000c4f4   0x0000003c   Code   RO         3938    i.SysCtlPeripheralReset  driverlib.lib(sysctl.o)
    0x0000c530   0x00000010   Code   RO         3950    i.SysCtlUSBPLLEnable  driverlib.lib(sysctl.o)
    0x0000c540   0x00000018   Code   RO         1235    i.SysTick_Handler   drv_bsp.o
    0x0000c558   0x00000036   Code   RO         1236    i.SysTick_Init      drv_bsp.o
    0x0000c58e   0x00000002   PAD
    0x0000c590   0x00000098   Code   RO         1157    i.SystemInit        system_tm4c123.o
    0x0000c628   0x000002d0   Code   RO         2184    i.Thermostatic_Ctrl_Task  drv_heating.o
    0x0000c8f8   0x00000068   Code   RO         4270    i.TimerIntRegister  driverlib.lib(timer.o)
    0x0000c960   0x00000012   Code   RO          804    i.TxHandler         ano_usb.o
    0x0000c972   0x00000002   PAD
    0x0000c974   0x00000058   Code   RO         1620    i.UART1_IRQHandler  drv_uart.o
    0x0000c9cc   0x00000058   Code   RO         1621    i.UART2_IRQHandler  drv_uart.o
    0x0000ca24   0x00000058   Code   RO         1622    i.UART3_IRQHandler  drv_uart.o
    0x0000ca7c   0x00000070   Code   RO         1623    i.UART4_IRQHandler  drv_uart.o
    0x0000caec   0x00000058   Code   RO         1624    i.UART5_IRQHandler  drv_uart.o
    0x0000cb44   0x00000058   Code   RO         4525    i.UARTIntRegister   driverlib.lib(uart.o)
    0x0000cb9c   0x00000010   Code   RO         2016    i.UART_Write_D      drv_gps.o
    0x0000cbac   0x0000005a   Code   RO         6904    i.ULPIConfigSet     usblib.lib(usbulpi.o)
    0x0000cc06   0x00000002   PAD
    0x0000cc08   0x00000018   Code   RO         5711    i.USB0DeviceIntHandler  usblib.lib(usbdhandler.o)
    0x0000cc20   0x00000154   Code   RO         5416    i.USBBufferEventCallback  usblib.lib(usbbuffer.o)
    0x0000cd74   0x00000006   Code   RO         5417    i.USBBufferFlush    usblib.lib(usbbuffer.o)
    0x0000cd7a   0x00000018   Code   RO         5419    i.USBBufferInit     usblib.lib(usbbuffer.o)
    0x0000cd92   0x00000028   Code   RO         5420    i.USBBufferRead     usblib.lib(usbbuffer.o)
    0x0000cdba   0x00000034   Code   RO         5422    i.USBBufferWrite    usblib.lib(usbbuffer.o)
    0x0000cdee   0x0000000a   Code   RO         4791    i.USBClockEnable    driverlib.lib(usb.o)
    0x0000cdf8   0x0000000a   Code   RO         4792    i.USBControllerVersion  driverlib.lib(usb.o)
    0x0000ce02   0x00000002   PAD
    0x0000ce04   0x000000dc   Code   RO         5521    i.USBDCDCCompositeInit  usblib.lib(usbdcdc.o)
    0x0000cee0   0x0000004c   Code   RO         5522    i.USBDCDCInit       usblib.lib(usbdcdc.o)
    0x0000cf2c   0x000000a4   Code   RO         5523    i.USBDCDCPacketRead  usblib.lib(usbdcdc.o)
    0x0000cfd0   0x00000058   Code   RO         5524    i.USBDCDCPacketWrite  usblib.lib(usbdcdc.o)
    0x0000d028   0x00000038   Code   RO         5527    i.USBDCDCRxPacketAvailable  usblib.lib(usbdcdc.o)
    0x0000d060   0x00000014   Code   RO         5533    i.USBDCDCTxPacketAvailable  usblib.lib(usbdcdc.o)
    0x0000d074   0x00000056   Code   RO         6567    i.USBDCDConfigDescGet  usblib.lib(usbdcdesc.o)
    0x0000d0ca   0x00000036   Code   RO         6568    i.USBDCDConfigDescGetNum  usblib.lib(usbdcdesc.o)
    0x0000d100   0x00000022   Code   RO         6569    i.USBDCDConfigDescGetSize  usblib.lib(usbdcdesc.o)
    0x0000d122   0x000000bc   Code   RO         6570    i.USBDCDConfigGetInterface  usblib.lib(usbdcdesc.o)
    0x0000d1de   0x0000005e   Code   RO         6571    i.USBDCDConfigGetInterfaceEndpoint  usblib.lib(usbdcdesc.o)
    0x0000d23c   0x00000044   Code   RO         5948    i.USBDCDDeviceInfoInit  usblib.lib(usbdenum.o)
    0x0000d280   0x00000018   Code   RO         5949    i.USBDCDFeatureGet  usblib.lib(usbdenum.o)
    0x0000d298   0x000001a8   Code   RO         5951    i.USBDCDInit        usblib.lib(usbdenum.o)
    0x0000d440   0x00000014   Code   RO         5955    i.USBDCDRequestDataEP0  usblib.lib(usbdenum.o)
    0x0000d454   0x00000014   Code   RO         5956    i.USBDCDSendDataEP0  usblib.lib(usbdenum.o)
    0x0000d468   0x0000001c   Code   RO         5958    i.USBDCDStallEP0    usblib.lib(usbdenum.o)
    0x0000d484   0x000000a4   Code   RO         5960    i.USBDClearFeature  usblib.lib(usbdenum.o)
    0x0000d528   0x00000074   Code   RO         5961    i.USBDEP0StateTx    usblib.lib(usbdenum.o)
    0x0000d59c   0x00000174   Code   RO         5962    i.USBDEP0StateTxConfig  usblib.lib(usbdenum.o)
    0x0000d710   0x00000034   Code   RO         5963    i.USBDGetConfiguration  usblib.lib(usbdenum.o)
    0x0000d744   0x00000170   Code   RO         5964    i.USBDGetDescriptor  usblib.lib(usbdenum.o)
    0x0000d8b4   0x0000005c   Code   RO         5965    i.USBDGetInterface  usblib.lib(usbdenum.o)
    0x0000d910   0x00000084   Code   RO         5966    i.USBDGetStatus     usblib.lib(usbdenum.o)
    0x0000d994   0x0000000a   Code   RO         4794    i.USBDMAChannelAddressSet  driverlib.lib(usb.o)
    0x0000d99e   0x00000016   Code   RO         4795    i.USBDMAChannelConfigSet  driverlib.lib(usb.o)
    0x0000d9b4   0x0000000a   Code   RO         4797    i.USBDMAChannelCountSet  driverlib.lib(usb.o)
    0x0000d9be   0x00000012   Code   RO         4798    i.USBDMAChannelDisable  driverlib.lib(usb.o)
    0x0000d9d0   0x00000012   Code   RO         4799    i.USBDMAChannelEnable  driverlib.lib(usb.o)
    0x0000d9e2   0x00000012   Code   RO         4800    i.USBDMAChannelIntDisable  driverlib.lib(usb.o)
    0x0000d9f4   0x00000012   Code   RO         4801    i.USBDMAChannelIntEnable  driverlib.lib(usb.o)
    0x0000da06   0x00000006   Code   RO         4802    i.USBDMAChannelIntStatus  driverlib.lib(usb.o)
    0x0000da0c   0x0000000e   Code   RO         4803    i.USBDMAChannelStatus  driverlib.lib(usb.o)
    0x0000da1a   0x00000002   PAD
    0x0000da1c   0x0000007c   Code   RO         5967    i.USBDReadAndDispatchRequest  usblib.lib(usbdenum.o)
    0x0000da98   0x00000024   Code   RO         5968    i.USBDSetAddress    usblib.lib(usbdenum.o)
    0x0000dabc   0x000000a4   Code   RO         5969    i.USBDSetConfiguration  usblib.lib(usbdenum.o)
    0x0000db60   0x00000028   Code   RO         5970    i.USBDSetDescriptor  usblib.lib(usbdenum.o)
    0x0000db88   0x00000084   Code   RO         5971    i.USBDSetFeature    usblib.lib(usbdenum.o)
    0x0000dc0c   0x000000bc   Code   RO         5972    i.USBDSetInterface  usblib.lib(usbdenum.o)
    0x0000dcc8   0x00000028   Code   RO         5973    i.USBDSyncFrame     usblib.lib(usbdenum.o)
    0x0000dcf0   0x00000036   Code   RO         6627    i.USBDescGet        usblib.lib(usbdesc.o)
    0x0000dd26   0x0000002e   Code   RO         6630    i.USBDescGetNum     usblib.lib(usbdesc.o)
    0x0000dd54   0x00000004   Code   RO         4807    i.USBDevAddrSet     driverlib.lib(usb.o)
    0x0000dd58   0x0000000a   Code   RO         4808    i.USBDevConnect     driverlib.lib(usb.o)
    0x0000dd62   0x0000000a   Code   RO         4809    i.USBDevDisconnect  driverlib.lib(usb.o)
    0x0000dd6c   0x00000088   Code   RO         4811    i.USBDevEndpointConfigSet  driverlib.lib(usb.o)
    0x0000ddf4   0x00000024   Code   RO         4812    i.USBDevEndpointDataAck  driverlib.lib(usb.o)
    0x0000de18   0x00000034   Code   RO         4813    i.USBDevEndpointStall  driverlib.lib(usb.o)
    0x0000de4c   0x0000004a   Code   RO         4814    i.USBDevEndpointStallClear  driverlib.lib(usb.o)
    0x0000de96   0x0000005e   Code   RO         4815    i.USBDevEndpointStatusClear  driverlib.lib(usb.o)
    0x0000def4   0x00000006   Code   RO         4816    i.USBDevLPMConfig   driverlib.lib(usb.o)
    0x0000defa   0x0000000e   Code   RO         4817    i.USBDevLPMDisable  driverlib.lib(usb.o)
    0x0000df08   0x0000000e   Code   RO         4818    i.USBDevLPMEnable   driverlib.lib(usb.o)
    0x0000df16   0x00000008   Code   RO         4820    i.USBDevMode        driverlib.lib(usb.o)
    0x0000df1e   0x00000002   PAD
    0x0000df20   0x000001a0   Code   RO         6609    i.USBDeviceConfig   usblib.lib(usbdconfig.o)
    0x0000e0c0   0x000000c8   Code   RO         6610    i.USBDeviceConfigAlternate  usblib.lib(usbdconfig.o)
    0x0000e188   0x000000ec   Code   RO         5974    i.USBDeviceEnumHandler  usblib.lib(usbdenum.o)
    0x0000e274   0x00000198   Code   RO         5976    i.USBDeviceIntHandlerInternal  usblib.lib(usbdenum.o)
    0x0000e40c   0x00000058   Code   RO         5977    i.USBDeviceResumeTickHandler  usblib.lib(usbdenum.o)
    0x0000e464   0x0000001a   Code   RO         4822    i.USBEndpointDMAChannel  driverlib.lib(usb.o)
    0x0000e47e   0x00000056   Code   RO         4823    i.USBEndpointDMAConfigSet  driverlib.lib(usb.o)
    0x0000e4d4   0x00000024   Code   RO         4824    i.USBEndpointDMADisable  driverlib.lib(usb.o)
    0x0000e4f8   0x00000024   Code   RO         4825    i.USBEndpointDMAEnable  driverlib.lib(usb.o)
    0x0000e51c   0x0000001e   Code   RO         4826    i.USBEndpointDataAvail  driverlib.lib(usb.o)
    0x0000e53a   0x00000054   Code   RO         4827    i.USBEndpointDataGet  driverlib.lib(usb.o)
    0x0000e58e   0x0000003a   Code   RO         4828    i.USBEndpointDataPut  driverlib.lib(usb.o)
    0x0000e5c8   0x00000030   Code   RO         4829    i.USBEndpointDataSend  driverlib.lib(usb.o)
    0x0000e5f8   0x0000000c   Code   RO         4831    i.USBEndpointPacketCountSet  driverlib.lib(usb.o)
    0x0000e604   0x00000010   Code   RO         4832    i.USBEndpointStatus  driverlib.lib(usb.o)
    0x0000e614   0x00000008   Code   RO         4833    i.USBFIFOAddrGet    driverlib.lib(usb.o)
    0x0000e61c   0x00000040   Code   RO         4835    i.USBFIFOConfigSet  driverlib.lib(usb.o)
    0x0000e65c   0x00000012   Code   RO         4862    i.USBHostResume     driverlib.lib(usb.o)
    0x0000e66e   0x00000002   PAD
    0x0000e670   0x0000002c   Code   RO         4867    i.USBIntEnableControl  driverlib.lib(usb.o)
    0x0000e69c   0x00000016   Code   RO         4868    i.USBIntEnableEndpoint  driverlib.lib(usb.o)
    0x0000e6b2   0x00000002   PAD
    0x0000e6b4   0x00000044   Code   RO         4869    i.USBIntRegister    driverlib.lib(usb.o)
    0x0000e6f8   0x0000003c   Code   RO         4870    i.USBIntStatusControl  driverlib.lib(usb.o)
    0x0000e734   0x0000000a   Code   RO         4871    i.USBIntStatusEndpoint  driverlib.lib(usb.o)
    0x0000e73e   0x0000000c   Code   RO         4875    i.USBLPMIntEnable   driverlib.lib(usb.o)
    0x0000e74a   0x00000006   Code   RO         4876    i.USBLPMIntStatus   driverlib.lib(usb.o)
    0x0000e750   0x0000015c   Code   RO         6667    i.USBLibDMAInit     usblib.lib(usbdma.o)
    0x0000e8ac   0x00000008   Code   RO         4882    i.USBOTGMode        driverlib.lib(usb.o)
    0x0000e8b4   0x00000046   Code   RO         6430    i.USBRingBufAdvanceRead  usblib.lib(usbringbuf.o)
    0x0000e8fa   0x00000054   Code   RO         6431    i.USBRingBufAdvanceWrite  usblib.lib(usbringbuf.o)
    0x0000e94e   0x0000001e   Code   RO         6432    i.USBRingBufContigFree  usblib.lib(usbringbuf.o)
    0x0000e96c   0x00000010   Code   RO         6433    i.USBRingBufContigUsed  usblib.lib(usbringbuf.o)
    0x0000e97c   0x0000001a   Code   RO         6435    i.USBRingBufFlush   usblib.lib(usbringbuf.o)
    0x0000e996   0x00000016   Code   RO         6436    i.USBRingBufFree    usblib.lib(usbringbuf.o)
    0x0000e9ac   0x0000000c   Code   RO         6438    i.USBRingBufInit    usblib.lib(usbringbuf.o)
    0x0000e9b8   0x00000052   Code   RO         6439    i.USBRingBufRead    usblib.lib(usbringbuf.o)
    0x0000ea0a   0x00000014   Code   RO         6442    i.USBRingBufUsed    usblib.lib(usbringbuf.o)
    0x0000ea1e   0x00000050   Code   RO         6443    i.USBRingBufWrite   usblib.lib(usbringbuf.o)
    0x0000ea6e   0x00000002   PAD
    0x0000ea70   0x0000001c   Code   RO         5734    i.USBStackModeSet   usblib.lib(usbmode.o)
    0x0000ea8c   0x0000000e   Code   RO         4887    i.USBULPIDisable    driverlib.lib(usb.o)
    0x0000ea9a   0x0000000e   Code   RO         4888    i.USBULPIEnable     driverlib.lib(usb.o)
    0x0000eaa8   0x00000020   Code   RO         4889    i.USBULPIRegRead    driverlib.lib(usb.o)
    0x0000eac8   0x00000020   Code   RO         4890    i.USBULPIRegWrite   driverlib.lib(usb.o)
    0x0000eae8   0x00000054   Code   RO         2017    i.WCXY_Acc_Get_Task  drv_gps.o
    0x0000eb3c   0x00000030   Code   RO         3109    i.WCZ_Acc_Get_Task  ano_flightdatacal.o
    0x0000eb6c   0x00000258   Code   RO         2787    i.WCZ_Data_Calc     ano_motioncal.o
    0x0000edc4   0x00000058   Code   RO         2788    i.WCZ_Data_Reset    ano_motioncal.o
    0x0000ee1c   0x00000200   Code   RO         3110    i.WCZ_Fus_Task      ano_flightdatacal.o
    0x0000f01c   0x00000050   Code   RO         3640    i._GPIOIntNumberGet  driverlib.lib(gpio.o)
    0x0000f06c   0x0000000e   Code   RO         7146    i.__scatterload_copy  mc_w.l(handlers.o)
    0x0000f07a   0x00000002   Code   RO         7147    i.__scatterload_null  mc_w.l(handlers.o)
    0x0000f07c   0x0000000e   Code   RO         7148    i.__scatterload_zeroinit  mc_w.l(handlers.o)
    0x0000f08a   0x00000002   PAD
    0x0000f08c   0x00000060   Code   RO         2667    i.a2w_3d_trans      ano_imu.o
    0x0000f0ec   0x0000001c   Code   RO         1851    i.ak8975_Trig       drv_ak8975.o
    0x0000f108   0x00000030   Code   RO         1852    i.ak8975_enable     drv_ak8975.o
    0x0000f138   0x0000012c   Code   RO         2668    i.calculate_RPY     ano_imu.o
    0x0000f264   0x00000050   Code   RO          648    i.ch_watch_dog      ano_rc.o
    0x0000f2b4   0x00000024   Code   RO          649    i.ch_watch_dog_feed  ano_rc.o
    0x0000f2d8   0x00000024   Code   RO         3015    i.ctrl_parameter_change_task  ano_flightctrl.o
    0x0000f2fc   0x00000020   Code   RO         2349    i.data_save         ano_fcdata.o
    0x0000f31c   0x00000058   Code   RO          650    i.fail_safe         ano_rc.o
    0x0000f374   0x000000c4   Code   RO          651    i.fail_safe_check   ano_rc.o
    0x0000f438   0x0000017c   Code   RO         2505    i.fast_atan2        ano_math.o
    0x0000f5b4   0x00000080   Code   RO         2389    i.fix_inte_filter   ano_filter.o
    0x0000f634   0x00000028   Code   RO         2018    i.gps_baudrate_config  drv_gps.o
    0x0000f65c   0x00000040   Code   RO         2019    i.gps_config        drv_gps.o
    0x0000f69c   0x0000003e   Code   RO         2669    i.h2w_2d_trans      ano_imu.o
    0x0000f6da   0x00000002   Code   RO         6669    i.iDMAUSBArbSizeSet  usblib.lib(usbdma.o)
    0x0000f6dc   0x00000084   Code   RO         6670    i.iDMAUSBChannelAllocate  usblib.lib(usbdma.o)
    0x0000f760   0x00000034   Code   RO         6671    i.iDMAUSBChannelDisable  usblib.lib(usbdma.o)
    0x0000f794   0x00000052   Code   RO         6672    i.iDMAUSBChannelEnable  usblib.lib(usbdma.o)
    0x0000f7e6   0x00000008   Code   RO         6673    i.iDMAUSBChannelIntDisable  usblib.lib(usbdma.o)
    0x0000f7ee   0x00000008   Code   RO         6674    i.iDMAUSBChannelIntEnable  usblib.lib(usbdma.o)
    0x0000f7f6   0x0000003e   Code   RO         6675    i.iDMAUSBChannelRelease  usblib.lib(usbdma.o)
    0x0000f834   0x00000038   Code   RO         6676    i.iDMAUSBChannelStatus  usblib.lib(usbdma.o)
    0x0000f86c   0x00000006   Code   RO         6677    i.iDMAUSBIntStatus  usblib.lib(usbdma.o)
    0x0000f872   0x000000f4   Code   RO         6678    i.iDMAUSBTransfer   usblib.lib(usbdma.o)
    0x0000f966   0x00000002   Code   RO         6679    i.iDMAUSBUnitSizeSet  usblib.lib(usbdma.o)
    0x0000f968   0x00000008   Code   RO         1757    i.icm20602_INT_Config  drv_icm20602.o
    0x0000f970   0x0000002e   Code   RO         1758    i.icm20602_enable   drv_icm20602.o
    0x0000f99e   0x00000026   Code   RO         1759    i.icm20602_readbuf  drv_icm20602.o
    0x0000f9c4   0x0000003a   Code   RO         1760    i.icm20602_setIntEnabled  drv_icm20602.o
    0x0000f9fe   0x0000003c   Code   RO         1761    i.icm20602_writeBit  drv_icm20602.o
    0x0000fa3a   0x00000024   Code   RO         1762    i.icm20602_writebyte  drv_icm20602.o
    0x0000fa5e   0x0000008a   Code   RO         2390    i.inte_fix_filter   ano_filter.o
    0x0000fae8   0x000000c8   Code   RO         3016    i.land_discriminat  ano_flightctrl.o
    0x0000fbb0   0x00000154   Code   RO          741    i.ledBreath         ano_led.o
    0x0000fd04   0x00000044   Code   RO          742    i.ledFlash          ano_led.o
    0x0000fd48   0x00000040   Code   RO          743    i.ledOnOff          ano_led.o
    0x0000fd88   0x00000090   Code   RO         2507    i.length_limit      ano_math.o
    0x0000fe18   0x00000018   Code   RO            4    i.main              main.o
    0x0000fe30   0x00000128   Code   RO         2725    i.motionless_check  ano_sensor_basic.o
    0x0000ff58   0x000000f4   Code   RO         2726    i.mpu_auto_az       ano_sensor_basic.o
    0x0001004c   0x0000001a   Code   RO         2510    i.my_abs            ano_math.o
    0x00010066   0x00000036   Code   RO         2513    i.my_deadzone       ano_math.o
    0x0001009c   0x00000014   Code   RO         2516    i.my_sqrt           ano_math.o
    0x000100b0   0x00000050   Code   RO         2517    i.my_sqrt_reciprocal  ano_math.o
    0x00010100   0x0000000c   Code   RO         3017    i.one_key_land      ano_flightctrl.o
    0x0001010c   0x00000028   Code   RO         3019    i.one_key_take_off  ano_flightctrl.o
    0x00010134   0x0000004c   Code   RO         3020    i.one_key_take_off_task  ano_flightctrl.o
    0x00010180   0x000001bc   Code   RO         1902    i.spl0601_get_calib_param  drv_spl06.o
    0x0001033c   0x000000dc   Code   RO         1903    i.spl0601_get_pressure  drv_spl06.o
    0x00010418   0x00000064   Code   RO         1904    i.spl0601_get_raw_pressure  drv_spl06.o
    0x0001047c   0x00000068   Code   RO         1905    i.spl0601_get_raw_temp  drv_spl06.o
    0x000104e4   0x00000094   Code   RO         1906    i.spl0601_get_temperature  drv_spl06.o
    0x00010578   0x00000138   Code   RO         1907    i.spl0601_rateset   drv_spl06.o
    0x000106b0   0x00000024   Code   RO         1908    i.spl0601_read      drv_spl06.o
    0x000106d4   0x00000010   Code   RO         1909    i.spl0601_start_continuous  drv_spl06.o
    0x000106e4   0x00000020   Code   RO         1912    i.spl0601_write     drv_spl06.o
    0x00010704   0x00000030   Code   RO         1913    i.spl06_enable      drv_spl06.o
    0x00010734   0x0000017c   Code   RO          652    i.stick_function    ano_rc.o
    0x000108b0   0x00000042   Code   RO          653    i.stick_function_check  ano_rc.o
    0x000108f2   0x00000026   Code   RO          654    i.stick_function_check_longpress  ano_rc.o
    0x00010918   0x00000048   Code   RO         6926    i.uDMAChannelAttributeDisable  driverlib.lib(udma.o)
    0x00010960   0x00000020   Code   RO         6929    i.uDMAChannelControlSet  driverlib.lib(udma.o)
    0x00010980   0x00000014   Code   RO         6930    i.uDMAChannelDisable  driverlib.lib(udma.o)
    0x00010994   0x00000014   Code   RO         6931    i.uDMAChannelEnable  driverlib.lib(udma.o)
    0x000109a8   0x00000028   Code   RO         6933    i.uDMAChannelModeGet  driverlib.lib(udma.o)
    0x000109d0   0x00000080   Code   RO         6939    i.uDMAChannelTransferSet  driverlib.lib(udma.o)
    0x00010a50   0x00000068   Code   RO         6680    i.uDMAUSBArbSizeSet  usblib.lib(usbdma.o)
    0x00010ab8   0x000000c0   Code   RO         6681    i.uDMAUSBChannelAllocate  usblib.lib(usbdma.o)
    0x00010b78   0x00000058   Code   RO         6682    i.uDMAUSBChannelDisable  usblib.lib(usbdma.o)
    0x00010bd0   0x0000006a   Code   RO         6683    i.uDMAUSBChannelEnable  usblib.lib(usbdma.o)
    0x00010c3a   0x00000002   Code   RO         6684    i.uDMAUSBChannelIntDisable  usblib.lib(usbdma.o)
    0x00010c3c   0x00000002   Code   RO         6685    i.uDMAUSBChannelIntEnable  usblib.lib(usbdma.o)
    0x00010c3e   0x0000005a   Code   RO         6686    i.uDMAUSBChannelRelease  usblib.lib(usbdma.o)
    0x00010c98   0x00000026   Code   RO         6687    i.uDMAUSBChannelStatus  usblib.lib(usbdma.o)
    0x00010cbe   0x00000034   Code   RO         6688    i.uDMAUSBIntStatus  usblib.lib(usbdma.o)
    0x00010cf2   0x000000c8   Code   RO         6689    i.uDMAUSBTransfer   usblib.lib(usbdma.o)
    0x00010dba   0x00000054   Code   RO         6690    i.uDMAUSBUnitSizeSet  usblib.lib(usbdma.o)
    0x00010e0e   0x00000002   PAD
    0x00010e10   0x00000280   Code   RO          655    i.unlock            ano_rc.o
    0x00011090   0x0000001a   Code   RO         2519    i.vec_2_cross_product  ano_math.o
    0x000110aa   0x0000001a   Code   RO         2520    i.vec_2_dot_product  ano_math.o
    0x000110c4   0x0000003e   Code   RO         2670    i.w2h_2d_trans      ano_imu.o
    0x00011102   0x00000002   PAD
    0x00011104   0x000000d8   Data   RO         1195    .constdata          usb_serial_structs.o
    0x000111dc   0x0000008f   Data   RO         2021    .constdata          drv_gps.o
    0x0001126b   0x00000142   Data   RO         2276    .constdata          drv_up_flow.o
    0x000113ad   0x00000003   PAD
    0x000113b0   0x00000404   Data   RO         2523    .constdata          ano_math.o
    0x000117b4   0x00000228   Data   RO         3641    .constdata          driverlib.lib(gpio.o)
    0x000119dc   0x00000254   Data   RO         3955    .constdata          driverlib.lib(sysctl.o)
    0x00011c30   0x000000a0   Data   RO         4291    .constdata          driverlib.lib(timer.o)
    0x00011cd0   0x00000080   Data   RO         4542    .constdata          driverlib.lib(uart.o)
    0x00011d50   0x00000008   Data   RO         5534    .constdata          usblib.lib(usbdcdc.o)
    0x00011d58   0x00000008   Data   RO         5535    .constdata          usblib.lib(usbdcdc.o)
    0x00011d60   0x00000023   Data   RO         5536    .constdata          usblib.lib(usbdcdc.o)
    0x00011d83   0x00000001   PAD
    0x00011d84   0x00000008   Data   RO         5537    .constdata          usblib.lib(usbdcdc.o)
    0x00011d8c   0x00000017   Data   RO         5538    .constdata          usblib.lib(usbdcdc.o)
    0x00011da3   0x00000001   PAD
    0x00011da4   0x00000008   Data   RO         5539    .constdata          usblib.lib(usbdcdc.o)
    0x00011dac   0x00000017   Data   RO         5540    .constdata          usblib.lib(usbdcdc.o)
    0x00011dc3   0x00000001   PAD
    0x00011dc4   0x00000008   Data   RO         5541    .constdata          usblib.lib(usbdcdc.o)
    0x00011dcc   0x00000008   Data   RO         5542    .constdata          usblib.lib(usbdcdc.o)
    0x00011dd4   0x00000008   Data   RO         5543    .constdata          usblib.lib(usbdcdc.o)
    0x00011ddc   0x00000008   Data   RO         5544    .constdata          usblib.lib(usbdcdc.o)
    0x00011de4   0x00000008   Data   RO         5545    .constdata          usblib.lib(usbdcdc.o)
    0x00011dec   0x00000040   Data   RO         5546    .constdata          usblib.lib(usbdcdc.o)
    0x00011e2c   0x0000010c   Data   RO         5855    .constdata          driverlib.lib(interrupt.o)
    0x00011f38   0x00000034   Data   RO         5979    .constdata          usblib.lib(usbdenum.o)
    0x00011f6c   0x00000020   Data   RO         7144    Region$$Table       anon$$obj.o


    Execution Region ER_RW (Base: 0x20000000, Size: 0x00000a6c, Max: 0xffffffff, ABSOLUTE, COMPRESSED[0x000000fc])

    Base Addr    Size         Type   Attr      Idx    E Section Name        Object

    0x20000000   0x00000050   Data   RW          100    .data               ano_scheduler.o
    0x20000050   0x00000004   Data   RW          296    .data               ano_parameter.o
    0x20000054   0x00000005   Data   RW          359    .data               ano_flyctrl.o
    0x20000059   0x00000001   PAD
    0x2000005a   0x00000022   Data   RW          439    .data               ano_dt.o
    0x2000007c   0x0000001f   Data   RW          657    .data               ano_rc.o
    0x2000009b   0x00000001   PAD
    0x2000009c   0x00000027   Data   RW          745    .data               ano_led.o
    0x200000c3   0x00000001   PAD
    0x200000c4   0x00000011   Data   RW          805    .data               ano_usb.o
    0x200000d5   0x00000003   PAD
    0x200000d8   0x00000030   Data   RW          941    .data               ano_of_decofusion.o
    0x20000108   0x00000018   Data   RW         1016    .data               ano_opmv_cbtracking_ctrl.o
    0x20000120   0x0000001c   Data   RW         1068    .data               ano_opmv_linetracking_ctrl.o
    0x2000013c   0x00000003   Data   RW         1116    .data               ano_opmv_ctrl.o
    0x2000013f   0x00000001   PAD
    0x20000140   0x000000d0   Data   RW         1196    .data               usb_serial_structs.o
    0x20000210   0x00000009   Data   RW         1237    .data               drv_bsp.o
    0x20000219   0x00000003   PAD
    0x2000021c   0x00000004   Data   RW         1346    .data               drv_adc.o
    0x20000220   0x00000012   Data   RW         1465    .data               drv_rcin.o
    0x20000232   0x0000000a   Data   RW         1626    .data               drv_uart.o
    0x2000023c   0x00000001   Data   RW         1764    .data               drv_icm20602.o
    0x2000023d   0x00000006   Data   RW         1853    .data               drv_ak8975.o
    0x20000243   0x00000001   PAD
    0x20000244   0x00000020   Data   RW         1915    .data               drv_spl06.o
    0x20000264   0x00000019   Data   RW         2022    .data               drv_gps.o
    0x2000027d   0x00000003   PAD
    0x20000280   0x0000004e   Data   RW         2096    .data               ano_of.o
    0x200002ce   0x00000002   PAD
    0x200002d0   0x00000013   Data   RW         2186    .data               drv_heating.o
    0x200002e3   0x00000001   PAD
    0x200002e4   0x00000004   Data   RW         2231    .data               drv_openmv.o
    0x200002e8   0x00000004   Data   RW         2277    .data               drv_up_flow.o
    0x200002ec   0x00000006   Data   RW         2314    .data               drv_laser.o
    0x200002f2   0x00000008   Data   RW         2351    .data               ano_fcdata.o
    0x200002fa   0x00000002   PAD
    0x200002fc   0x00000154   Data   RW         2672    .data               ano_imu.o
    0x20000450   0x00000049   Data   RW         2728    .data               ano_sensor_basic.o
    0x20000499   0x00000003   PAD
    0x2000049c   0x0000001d   Data   RW         2790    .data               ano_motioncal.o
    0x200004b9   0x00000003   PAD
    0x200004bc   0x0000000e   Data   RW         2868    .data               ano_altctrl.o
    0x200004ca   0x00000002   PAD
    0x200004cc   0x00000010   Data   RW         2948    .data               ano_attctrl.o
    0x200004dc   0x0000002c   Data   RW         3022    .data               ano_flightctrl.o
    0x20000508   0x00000041   Data   RW         3111    .data               ano_flightdatacal.o
    0x20000549   0x00000003   PAD
    0x2000054c   0x00000036   Data   RW         3169    .data               ano_locctrl.o
    0x20000582   0x00000002   PAD
    0x20000584   0x00000020   Data   RW         3211    .data               ano_magprocess.o
    0x200005a4   0x00000014   Data   RW         3254    .data               ano_motorctrl.o
    0x200005b8   0x0000000c   Data   RW         3288    .data               ano_power.o
    0x200005c4   0x0000001d   Data   RW         5547    .data               usblib.lib(usbdcdc.o)
    0x200005e1   0x00000008   Data   RW         5548    .data               usblib.lib(usbdcdc.o)
    0x200005e9   0x00000003   PAD
    0x200005ec   0x0000000c   Data   RW         5549    .data               usblib.lib(usbdcdc.o)
    0x200005f8   0x0000000c   Data   RW         5550    .data               usblib.lib(usbdcdc.o)
    0x20000604   0x00000010   Data   RW         5551    .data               usblib.lib(usbdcdc.o)
    0x20000614   0x00000010   Data   RW         5552    .data               usblib.lib(usbdcdc.o)
    0x20000624   0x00000010   Data   RW         5735    .data               usblib.lib(usbmode.o)
    0x20000634   0x00000010   Data   RW         5980    .data               usblib.lib(usbdenum.o)
    0x20000644   0x00000008   Data   RW         6531    .data               usblib.lib(usbtick.o)
    0x2000064c   0x00000004   Data   RW         6532    .data               usblib.lib(usbtick.o)
    0x20000650   0x000001b0   PAD
    0x20000800   0x0000026c   Data   RW         5856    vtable              driverlib.lib(interrupt.o)


    Execution Region ER_ZI (Base: 0x20000a6c, Size: 0x00002a04, Max: 0xffffffff, ABSOLUTE)

    Base Addr    Size         Type   Attr      Idx    E Section Name        Object

    0x20000a6c   0x00000800   Zero   RW          295    .bss                ano_parameter.o
    0x2000126c   0x00000054   Zero   RW          358    .bss                ano_flyctrl.o
    0x200012c0   0x00000302   Zero   RW          438    .bss                ano_dt.o
    0x200015c2   0x00000024   Zero   RW          656    .bss                ano_rc.o
    0x200015e6   0x0000000f   Zero   RW          744    .bss                ano_led.o
    0x200015f5   0x00000003   PAD
    0x200015f8   0x00000020   Zero   RW          893    .bss                ano_programctrl_user.o
    0x20001618   0x00000054   Zero   RW          940    .bss                ano_of_decofusion.o
    0x2000166c   0x00000040   Zero   RW         1015    .bss                ano_opmv_cbtracking_ctrl.o
    0x200016ac   0x0000001c   Zero   RW         1067    .bss                ano_opmv_linetracking_ctrl.o
    0x200016c8   0x00000200   Zero   RW         1194    .bss                usb_serial_structs.o
    0x200018c8   0x00000059   Zero   RW         1464    .bss                drv_rcin.o
    0x20001921   0x00000500   Zero   RW         1625    .bss                drv_uart.o
    0x20001e21   0x0000000e   Zero   RW         1763    .bss                drv_icm20602.o
    0x20001e2f   0x00000001   PAD
    0x20001e30   0x0000002c   Zero   RW         1914    .bss                drv_spl06.o
    0x20001e5c   0x00000004   PAD
    0x20001e60   0x000000e8   Zero   RW         2020    .bss                drv_gps.o
    0x20001f48   0x00000032   Zero   RW         2095    .bss                ano_of.o
    0x20001f7a   0x00000002   PAD
    0x20001f7c   0x0000023c   Zero   RW         2143    .bss                ano_uwb.o
    0x200021b8   0x0000000c   Zero   RW         2185    .bss                drv_heating.o
    0x200021c4   0x0000002e   Zero   RW         2230    .bss                drv_openmv.o
    0x200021f2   0x0000001c   Zero   RW         2275    .bss                drv_up_flow.o
    0x2000220e   0x00000009   Zero   RW         2313    .bss                drv_laser.o
    0x20002217   0x00000001   PAD
    0x20002218   0x00000079   Zero   RW         2350    .bss                ano_fcdata.o
    0x20002291   0x00000003   PAD
    0x20002294   0x00000054   Zero   RW         2671    .bss                ano_imu.o
    0x200022e8   0x00000174   Zero   RW         2727    .bss                ano_sensor_basic.o
    0x2000245c   0x0000004c   Zero   RW         2789    .bss                ano_motioncal.o
    0x200024a8   0x00000080   Zero   RW         2867    .bss                ano_altctrl.o
    0x20002528   0x000001e8   Zero   RW         2947    .bss                ano_attctrl.o
    0x20002710   0x00000034   Zero   RW         3021    .bss                ano_flightctrl.o
    0x20002744   0x00000148   Zero   RW         3168    .bss                ano_locctrl.o
    0x2000288c   0x00000010   Zero   RW         3253    .bss                ano_motorctrl.o
    0x2000289c   0x00000090   Zero   RW         5978    .bss                usblib.lib(usbdenum.o)
    0x2000292c   0x00000030   Zero   RW         6530    .bss                usblib.lib(usbtick.o)
    0x2000295c   0x00000110   Zero   RW         6691    .bss                usblib.lib(usbdma.o)
    0x20002a6c   0x00000004   PAD
    0x20002a70   0x00000a00   Zero   RW         1146    STACK               startup_tm4c123.o


==============================================================================

Image component sizes


      Code (inc. data)   RO Data    RW Data    ZI Data      Debug   Object Name

      1604        198          0         14        128       4120   ano_altctrl.o
      2532        218          0         16        488       6979   ano_attctrl.o
      8636        376          0         34        770      25324   ano_dt.o
        40         10          0          8        121       3814   ano_fcdata.o
       266          0          0          0          0       3148   ano_filter.o
      2234        282          0         44         52       9756   ano_flightctrl.o
       880        166          0         65          0       5059   ano_flightdatacal.o
      2312        394          0          5         84       4130   ano_flyctrl.o
      2984        182          0        340         84       7583   ano_imu.o
      1528         86          0         39         15       5856   ano_led.o
      3540        290          0         54        328       4504   ano_locctrl.o
      1256        104          0         32          0       4691   ano_magprocess.o
       756         38       1028          0          0       6786   ano_math.o
       688         98          0         29         76       2257   ano_motioncal.o
       560         32          0         20         16       2499   ano_motorctrl.o
       864        126          0         78         50       4936   ano_of.o
      1480        156          0         48         84       7885   ano_of_decofusion.o
      1160        106          0         24         64       4968   ano_opmv_cbtracking_ctrl.o
       244         34          0          3          0       1467   ano_opmv_ctrl.o
       852         64          0         28         28       4279   ano_opmv_linetracking_ctrl.o
      1112        140          0          4       2048       6026   ano_parameter.o
       288          4          0          0          0       2064   ano_pid.o
       476         60          0         12          0       1166   ano_power.o
       136         24          0          0         32       2321   ano_programctrl_user.o
      1880        254          0         31         36       9670   ano_rc.o
       916         82          0         80          0      11303   ano_scheduler.o
      2080        176          0         73        372       7847   ano_sensor_basic.o
       408         62          0         17          0      16530   ano_usb.o
        96         14          0          0        572       2920   ano_uwb.o
       356         58          0          4          0       2072   drv_adc.o
       272         24          0          6          0       3730   drv_ak8975.o
       466         50          0          9          0      34009   drv_bsp.o
      1314        104        143         25        232       8681   drv_gps.o
       736        166          0         19         12       2691   drv_heating.o
       934         48          0          1         14       8559   drv_icm20602.o
       264         28          0          6          9       1927   drv_laser.o
       324         22          0          0          0       1277   drv_led.o
       512         36          0          4         46       4398   drv_openmv.o
        88         18          0          0          0       1677   drv_paramter.o
      1004         76          0          0          0       2225   drv_pwmout.o
      1208        108          0         18         89       5243   drv_rcin.o
       246         24          0          0          0       2330   drv_spi.o
      1796        112          0         32         44      10825   drv_spl06.o
      2060        280          0         10       1280      13047   drv_uart.o
       556         36        322          4         28       2661   drv_up_flow.o
        24          6          0          0          0      30523   main.o
       252         10        620          0       2560       5456   startup_tm4c123.o
       152         40          0          0          0        645   system_tm4c123.o
         0          0        216        208        512      27030   usb_serial_structs.o

    ----------------------------------------------------------------------
     54386       5022       2364       1476      10288     348894   Object Totals
         0          0         32          0          0          0   (incl. Generated)
        14          0          3         32         14          0   (incl. Padding)

    ----------------------------------------------------------------------

      Code (inc. data)   RO Data    RW Data    ZI Data      Debug   Library Member Name

       104         12          0          0          0       4777   adc.o
        38          0          0          0          0        572   cpu.o
       124         18        552          0          0       3222   gpio.o
       376         32        268        620          0       4387   interrupt.o
       456         48        596          0          0       4199   sysctl.o
       104         16        160          0          0       1767   timer.o
        88         18        128          0          0       1795   uart.o
       312         32          0          0          0       3961   udma.o
      1456         20          0          0          0      41796   usb.o
        86          0          0          0          0          0   __dczerorl2.o
         0          0          0          0          0          0   entry.o
         0          0          0          0          0          0   entry10a.o
         0          0          0          0          0          0   entry11a.o
         8          4          0          0          0          0   entry2.o
         4          0          0          0          0          0   entry5.o
         0          0          0          0          0          0   entry7b.o
         0          0          0          0          0          0   entry8b.o
         8          4          0          0          0          0   entry9a.o
        30          0          0          0          0          0   handlers.o
        36          8          0          0          0         68   init.o
         0          0          0          0          0          0   iusefp.o
        30          0          0          0          0         68   llshl.o
        36          0          0          0          0         68   llsshr.o
        32          0          0          0          0         68   llushr.o
        36          0          0          0          0         68   memcpya.o
        56          0          0          0          0         88   d2f.o
       334          0          0          0          0        148   dadd.o
       222          0          0          0          0        100   ddiv.o
       186          0          0          0          0        176   depilogue.o
        62          0          0          0          0         80   dfixi.o
        34          0          0          0          0         76   dflti.o
        26          0          0          0          0         76   dfltui.o
       228          0          0          0          0         96   dmul.o
        38          0          0          0          0         68   f2d.o
       110          0          0          0          0        168   fepilogue.o
       628          0          0          0          0      18924   usbbuffer.o
      2270         70        217         93          0      33677   usbdcdc.o
       456          0          0          0          0       4863   usbdcdesc.o
       616         12          0          0          0       3605   usbdconfig.o
      3336        270         52         16        144      20401   usbdenum.o
       100          0          0          0          0       2033   usbdesc.o
        24          4          0          0          0        551   usbdhandler.o
      2042        124          0          0        272      16032   usbdma.o
        28          4          0         16          0       1994   usbmode.o
       442          0          0          0          0      17166   usbringbuf.o
       164         28          0         12         48      16276   usbtick.o
        90          0          0          0          0        592   usbulpi.o

    ----------------------------------------------------------------------
     14886        724       1976       1192        468     204006   Library Totals
        30          0          3        435          4          0   (incl. Padding)

    ----------------------------------------------------------------------

      Code (inc. data)   RO Data    RW Data    ZI Data      Debug   Library Name

      3058        196       1704        620          0      66476   driverlib.lib
       306         16          0          0          0        340   mc_w.l
      1296          0          0          0          0       1076   mf_w.l
     10196        512        269        137        464     136114   usblib.lib

    ----------------------------------------------------------------------
     14886        724       1976       1192        468     204006   Library Totals

    ----------------------------------------------------------------------

==============================================================================


      Code (inc. data)   RO Data    RW Data    ZI Data      Debug   

     69272       5746       4340       2668      10756     513760   Grand Totals
     69272       5746       4340        252      10756     513760   ELF Image Totals (compressed)
     69272       5746       4340        252          0          0   ROM Totals

==============================================================================

    Total RO  Size (Code + RO Data)                73612 (  71.89kB)
    Total RW  Size (RW Data + ZI Data)             13424 (  13.11kB)
    Total ROM Size (Code + RO Data + RW Data)      73864 (  72.13kB)

==============================================================================

